

Microchip MPLAB XC8 Assembler V2.10 build 88905656 
                                                                                               Wed Mar 17 17:15:59 2021

Microchip MPLAB XC8 C Compiler v2.10 (Free license) build 20190730164152 Og1 
     1                           	processor	18F4580
     2                           	fnconf	rparam,??,?,0
     3                           	opt	pw 120
     4                           	opt	flic
     5                           	psect	smallconst,global,reloc=2,class=SMALLCONST,delta=1,noexec
     6                           	psect	cinit,global,reloc=2,class=CODE,delta=1
     7                           	psect	bssCOMRAM,global,class=COMRAM,space=1,delta=1,noexec
     8                           	psect	bssBANK0,global,class=BANK0,space=1,delta=1,lowdata,noexec
     9                           	psect	cstackBANK0,global,class=BANK0,space=1,delta=1,noexec
    10                           	psect	cstackCOMRAM,global,class=COMRAM,space=1,delta=1,noexec
    11                           	psect	text0,global,reloc=2,class=CODE,delta=1
    12                           	psect	text1,global,reloc=2,class=CODE,delta=1,group=2
    13                           	psect	text2,global,reloc=2,class=CODE,delta=1
    14                           	psect	text3,global,reloc=2,class=CODE,delta=1
    15                           	psect	text4,global,reloc=2,class=CODE,delta=1
    16                           	psect	text5,global,reloc=2,class=CODE,delta=1
    17                           	psect	text6,global,reloc=2,class=CODE,delta=1,group=2
    18                           	psect	text7,global,reloc=2,class=CODE,delta=1,group=2
    19                           	psect	text8,global,reloc=2,class=CODE,delta=1,group=2
    20                           	psect	text9,global,reloc=2,class=CODE,delta=1,group=2
    21                           	psect	text10,global,reloc=2,class=CODE,delta=1,group=2
    22                           	psect	text11,global,reloc=2,class=CODE,delta=1,group=1
    23                           	psect	text12,global,reloc=2,class=CODE,delta=1,group=1
    24                           	psect	text13,global,reloc=2,class=CODE,delta=1
    25                           	psect	text14,global,reloc=2,class=CODE,delta=1
    26                           	psect	text15,global,reloc=2,class=CODE,delta=1
    27                           	psect	text16,global,reloc=2,class=CODE,delta=1,group=1
    28                           	psect	text17,global,reloc=2,class=CODE,delta=1,group=1
    29                           	psect	text18,global,reloc=2,class=CODE,delta=1,group=1
    30                           	psect	text19,global,reloc=2,class=CODE,delta=1,group=1
    31                           	psect	text20,global,reloc=2,class=CODE,delta=1,group=1
    32                           	psect	text21,global,reloc=2,class=CODE,delta=1
    33                           	psect	text22,global,reloc=2,class=CODE,delta=1
    34                           	psect	text23,global,reloc=2,class=CODE,delta=1
    35                           	psect	text24,global,reloc=2,class=CODE,delta=1
    36                           	psect	text25,global,reloc=2,class=CODE,delta=1
    37                           	psect	text26,global,reloc=2,class=CODE,delta=1
    38                           	psect	text27,global,reloc=2,class=CODE,delta=1
    39                           	psect	intsave_regs,global,class=BIGRAM,space=1,delta=1,noexec
    40                           	psect	rparam,global,class=COMRAM,space=1,delta=1,noexec
    41  0000                     
    42                           ; Version 2.10
    43                           ; Generated 31/07/2019 GMT
    44                           ; 
    45                           ; Copyright © 2019, Microchip Technology Inc. and its subsidiaries ("Microchip")
    46                           ; All rights reserved.
    47                           ; 
    48                           ; This software is developed by Microchip Technology Inc. and its subsidiaries ("Microch
      +                          ip").
    49                           ; 
    50                           ; Redistribution and use in source and binary forms, with or without modification, are
    51                           ; permitted provided that the following conditions are met:
    52                           ; 
    53                           ;     1. Redistributions of source code must retain the above copyright notice, this lis
      +                          t of
    54                           ;        conditions and the following disclaimer.
    55                           ; 
    56                           ;     2. Redistributions in binary form must reproduce the above copyright notice, this 
      +                          list
    57                           ;        of conditions and the following disclaimer in the documentation and/or other
    58                           ;        materials provided with the distribution.
    59                           ; 
    60                           ;     3. Microchip's name may not be used to endorse or promote products derived from th
      +                          is
    61                           ;        software without specific prior written permission.
    62                           ; 
    63                           ; THIS SOFTWARE IS PROVIDED BY MICROCHIP "AS IS" AND ANY EXPRESS OR IMPLIED WARRANTIES,
    64                           ; INCLUDING, BUT NOT LIMITED TO, THE IMPLIED WARRANTIES OF MERCHANTABILITY AND FITNESS F
      +                          OR
    65                           ; PURPOSE ARE DISCLAIMED.  IN NO EVENT SHALL MICROCHIP BE LIABLE FOR ANY DIRECT, INDIREC
      +                          T,
    66                           ; INCIDENTAL, SPECIAL, EXEMPLARY, OR CONSEQUENTIAL DAMAGES (INCLUDING BUT NOT LIMITED TO
    67                           ; PROCUREMENT OF SUBSTITUTE GOODS OR SERVICES; LOSS OF USE, DATA OR PROFITS; OR BUSINESS
    68                           ; INTERRUPTION) HOWSOEVER CAUSED AND ON ANY THEORY OF LIABILITY, WHETHER IN CONTRACT, ST
      +                          RICT
    69                           ; LIABILITY, OR TORT (INCLUDING NEGLIGENCE OR OTHERWISE) ARISING IN ANY WAY OUT OF THE U
      +                          SE OF
    70                           ; THIS SOFTWARE, EVEN IF ADVISED OF THE POSSIBILITY OF SUCH DAMAGE.
    71                           ; 
    72                           ; 
    73                           ; Code-generator required, PIC18F4580 Definitions
    74                           ; 
    75                           ; SFR Addresses
    76  0000                     _TMR1	set	4046
    77  0000                     _PORTBbits	set	3969
    78  0000                     _LATD	set	3980
    79  0000                     _PORTC	set	3970
    80  0000                     _T1CON	set	4045
    81  0000                     _INTCON2bits	set	4081
    82  0000                     _TRISC	set	3988
    83  0000                     _TRISD	set	3989
    84  0000                     _TRISB	set	3987
    85  0000                     _TMR1ON	set	32360
    86  0000                     _LATD3	set	31843
    87  0000                     _LATD2	set	31842
    88  0000                     _TMR1IF	set	31984
    89  0000                     _LATD1	set	31841
    90  0000                     _LATD0	set	31840
    91                           
    92                           	psect	smallconst
    93  000600                     __psmallconst:
    94                           	opt callstack 0
    95  000600  00                 	db	0
    96  000601                     STR_1:
    97  000601  20                 	db	32
    98  000602  44                 	db	68	;'D'
    99  000603  69                 	db	105	;'i'
   100  000604  73                 	db	115	;'s'
   101  000605  74                 	db	116	;'t'
   102  000606  61                 	db	97	;'a'
   103  000607  6E                 	db	110	;'n'
   104  000608  63                 	db	99	;'c'
   105  000609  65                 	db	101	;'e'
   106  00060A  3A                 	db	58	;':'
   107  00060B  00                 	db	0
   108  00060C                     STR_3:
   109  00060C  20                 	db	32
   110  00060D  63                 	db	99	;'c'
   111  00060E  6D                 	db	109	;'m'
   112  00060F  20                 	db	32
   113  000610  20                 	db	32
   114  000611  20                 	db	32
   115  000612  00                 	db	0
   116  000613                     STR_2:
   117  000613  25                 	db	37
   118  000614  64                 	db	100	;'d'
   119  000615  00                 	db	0
   120  000616                     STR_4:
   121  000616  30                 	db	48	;'0'
   122  000617  00                 	db	0
   123  0000                     
   124                           ; #config settings
   125  000618  00                 	db	0	; dummy byte at the end
   126  0000                     
   127                           	psect	cinit
   128  00262A                     __pcinit:
   129                           	opt callstack 0
   130  00262A                     start_initialization:
   131                           	opt callstack 0
   132  00262A                     __initialization:
   133                           	opt callstack 0
   134                           
   135                           ; Clear objects allocated to BANK0 (66 bytes)
   136  00262A  EE00  F0BA         	lfsr	0,__pbssBANK0
   137  00262E  0E42               	movlw	66
   138  002630                     clear_0:
   139  002630  6AEE               	clrf	postinc0,c
   140  002632  06E8               	decf	wreg,f,c
   141  002634  E1FD               	bnz	clear_0
   142                           
   143                           ; Clear objects allocated to COMRAM (2 bytes)
   144  002636  6A5F               	clrf	(__pbssCOMRAM+1)& (0+255),c
   145  002638  6A5E               	clrf	__pbssCOMRAM& (0+255),c
   146  00263A                     end_of_initialization:
   147                           	opt callstack 0
   148  00263A                     __end_of__initialization:
   149                           	opt callstack 0
   150  00263A  0E00               	movlw	low (__Lmediumconst shr (0+16))
   151  00263C  6EF8               	movwf	tblptru,c
   152  00263E  0100               	movlb	0
   153  002640  EFBE  F00A         	goto	_main	;jump to C main() function
   154                           
   155                           	psect	bssCOMRAM
   156  00005E                     __pbssCOMRAM:
   157                           	opt callstack 0
   158  00005E                     _flags:
   159                           	opt callstack 0
   160  00005E                     	ds	2
   161                           
   162                           	psect	bssBANK0
   163  0000BA                     __pbssBANK0:
   164                           	opt callstack 0
   165  0000BA                     _dist2:
   166                           	opt callstack 0
   167  0000BA                     	ds	4
   168  0000BE                     _dist:
   169                           	opt callstack 0
   170  0000BE                     	ds	4
   171  0000C2                     _Distance2:
   172                           	opt callstack 0
   173  0000C2                     	ds	4
   174  0000C6                     _Distance:
   175                           	opt callstack 0
   176  0000C6                     	ds	4
   177  0000CA                     _nout:
   178                           	opt callstack 0
   179  0000CA                     	ds	2
   180  0000CC                     _width:
   181                           	opt callstack 0
   182  0000CC                     	ds	2
   183  0000CE                     _prec:
   184                           	opt callstack 0
   185  0000CE                     	ds	2
   186  0000D0                     _distance2:
   187                           	opt callstack 0
   188  0000D0                     	ds	2
   189  0000D2                     _distance:
   190                           	opt callstack 0
   191  0000D2                     	ds	2
   192  0000D4                     _j:
   193                           	opt callstack 0
   194  0000D4                     	ds	2
   195  0000D6                     _i:
   196                           	opt callstack 0
   197  0000D6                     	ds	2
   198  0000D8                     _Time2:
   199                           	opt callstack 0
   200  0000D8                     	ds	2
   201  0000DA                     _Time:
   202                           	opt callstack 0
   203  0000DA                     	ds	2
   204  0000DC                     _dbuf:
   205                           	opt callstack 0
   206  0000DC                     	ds	32
   207                           
   208                           	psect	cstackBANK0
   209  000060                     __pcstackBANK0:
   210                           	opt callstack 0
   211  000060                     	ds	2
   212  000062                     sprintf@ap:
   213                           	opt callstack 0
   214                           
   215                           ; 2 bytes @ 0x2
   216  000062                     	ds	2
   217  000064                     sprintf@f:
   218                           	opt callstack 0
   219                           
   220                           ; 6 bytes @ 0x4
   221  000064                     	ds	6
   222  00006A                     main@Total_distance:
   223                           	opt callstack 0
   224                           
   225                           ; 40 bytes @ 0xA
   226  00006A                     	ds	40
   227  000092                     main@Total_distance2:
   228                           	opt callstack 0
   229                           
   230                           ; 40 bytes @ 0x32
   231  000092                     	ds	40
   232                           
   233                           	psect	cstackCOMRAM
   234  000001                     __pcstackCOMRAM:
   235                           	opt callstack 0
   236  000001                     ?_strlen:
   237                           	opt callstack 0
   238  000001                     ?___fladd:
   239                           	opt callstack 0
   240  000001                     ?___xxtofl:
   241                           	opt callstack 0
   242  000001                     ?___aodiv:
   243                           	opt callstack 0
   244  000001                     ?___aomod:
   245                           	opt callstack 0
   246  000001                     MSdelay@val:
   247                           	opt callstack 0
   248  000001                     fputc@c:
   249                           	opt callstack 0
   250  000001                     strlen@s:
   251                           	opt callstack 0
   252  000001                     ___fladd@b:
   253                           	opt callstack 0
   254  000001                     ___xxtofl@val:
   255                           	opt callstack 0
   256  000001                     ___aodiv@dividend:
   257                           	opt callstack 0
   258  000001                     ___aomod@dividend:
   259                           	opt callstack 0
   260                           
   261                           ; 8 bytes @ 0x0
   262  000001                     	ds	2
   263  000003                     MSdelay@i:
   264                           	opt callstack 0
   265  000003                     fputc@fp:
   266                           	opt callstack 0
   267  000003                     strlen@a:
   268                           	opt callstack 0
   269                           
   270                           ; 2 bytes @ 0x2
   271  000003                     	ds	2
   272  000005                     ??_fputc:
   273  000005                     ??___xxtofl:
   274  000005                     MSdelay@j:
   275                           	opt callstack 0
   276  000005                     ___fladd@a:
   277                           	opt callstack 0
   278                           
   279                           ; 4 bytes @ 0x4
   280  000005                     	ds	2
   281  000007                     ??_LCD_Command:
   282  000007                     ??_LCD_Char:
   283                           
   284                           ; 1 bytes @ 0x6
   285  000007                     	ds	1
   286  000008                     LCD_Command@cmd:
   287                           	opt callstack 0
   288  000008                     LCD_Char@dat:
   289                           	opt callstack 0
   290                           
   291                           ; 1 bytes @ 0x7
   292  000008                     	ds	1
   293  000009                     ??___fladd:
   294  000009                     ___xxtofl@sign:
   295                           	opt callstack 0
   296  000009                     LCD_String@msg:
   297                           	opt callstack 0
   298  000009                     ___aodiv@divisor:
   299                           	opt callstack 0
   300  000009                     ___aomod@divisor:
   301                           	opt callstack 0
   302                           
   303                           ; 8 bytes @ 0x8
   304  000009                     	ds	1
   305  00000A                     ___xxtofl@exp:
   306                           	opt callstack 0
   307  00000A                     fputs@s:
   308                           	opt callstack 0
   309                           
   310                           ; 2 bytes @ 0x9
   311  00000A                     	ds	1
   312  00000B                     LCD_String_xy@pos:
   313                           	opt callstack 0
   314  00000B                     ___xxtofl@arg:
   315                           	opt callstack 0
   316                           
   317                           ; 4 bytes @ 0xA
   318  00000B                     	ds	1
   319  00000C                     LCD_String_xy@msg:
   320                           	opt callstack 0
   321  00000C                     fputs@fp:
   322                           	opt callstack 0
   323                           
   324                           ; 2 bytes @ 0xB
   325  00000C                     	ds	1
   326  00000D                     ___fladd@signs:
   327                           	opt callstack 0
   328                           
   329                           ; 1 bytes @ 0xC
   330  00000D                     	ds	1
   331  00000E                     LCD_String_xy@row:
   332                           	opt callstack 0
   333  00000E                     ___fladd@aexp:
   334                           	opt callstack 0
   335  00000E                     fputs@c:
   336                           	opt callstack 0
   337                           
   338                           ; 1 bytes @ 0xD
   339  00000E                     	ds	1
   340  00000F                     ?___fldiv:
   341                           	opt callstack 0
   342  00000F                     LCD_String_xy@location:
   343                           	opt callstack 0
   344  00000F                     ___fladd@bexp:
   345                           	opt callstack 0
   346  00000F                     fputs@i:
   347                           	opt callstack 0
   348  00000F                     ___fldiv@b:
   349                           	opt callstack 0
   350                           
   351                           ; 4 bytes @ 0xE
   352  00000F                     	ds	1
   353  000010                     ___fladd@grs:
   354                           	opt callstack 0
   355                           
   356                           ; 1 bytes @ 0xF
   357  000010                     	ds	1
   358  000011                     ?_pad:
   359                           	opt callstack 0
   360  000011                     ___aodiv@counter:
   361                           	opt callstack 0
   362  000011                     ___aomod@counter:
   363                           	opt callstack 0
   364  000011                     pad@fp:
   365                           	opt callstack 0
   366                           
   367                           ; 2 bytes @ 0x10
   368  000011                     	ds	1
   369  000012                     ___aodiv@sign:
   370                           	opt callstack 0
   371  000012                     ___aomod@sign:
   372                           	opt callstack 0
   373                           
   374                           ; 1 bytes @ 0x11
   375  000012                     	ds	1
   376  000013                     ?_abs:
   377                           	opt callstack 0
   378  000013                     pad@buf:
   379                           	opt callstack 0
   380  000013                     abs@a:
   381                           	opt callstack 0
   382  000013                     ___fldiv@a:
   383                           	opt callstack 0
   384  000013                     ___aodiv@quotient:
   385                           	opt callstack 0
   386                           
   387                           ; 8 bytes @ 0x12
   388  000013                     	ds	2
   389  000015                     ??_abs:
   390  000015                     pad@p:
   391                           	opt callstack 0
   392                           
   393                           ; 2 bytes @ 0x14
   394  000015                     	ds	2
   395  000017                     ??___fldiv:
   396  000017                     ??_pad:
   397                           
   398                           ; 1 bytes @ 0x16
   399  000017                     	ds	1
   400  000018                     pad@i:
   401                           	opt callstack 0
   402                           
   403                           ; 2 bytes @ 0x17
   404  000018                     	ds	2
   405  00001A                     pad@w:
   406                           	opt callstack 0
   407                           
   408                           ; 2 bytes @ 0x19
   409  00001A                     	ds	1
   410  00001B                     ___fldiv@rem:
   411                           	opt callstack 0
   412                           
   413                           ; 4 bytes @ 0x1A
   414  00001B                     	ds	1
   415  00001C                     ?_dtoa:
   416                           	opt callstack 0
   417  00001C                     dtoa@fp:
   418                           	opt callstack 0
   419                           
   420                           ; 2 bytes @ 0x1B
   421  00001C                     	ds	2
   422  00001E                     dtoa@d:
   423                           	opt callstack 0
   424                           
   425                           ; 8 bytes @ 0x1D
   426  00001E                     	ds	1
   427  00001F                     ___fldiv@sign:
   428                           	opt callstack 0
   429                           
   430                           ; 1 bytes @ 0x1E
   431  00001F                     	ds	1
   432  000020                     ___fldiv@new_exp:
   433                           	opt callstack 0
   434                           
   435                           ; 2 bytes @ 0x1F
   436  000020                     	ds	2
   437  000022                     ___fldiv@grs:
   438                           	opt callstack 0
   439                           
   440                           ; 4 bytes @ 0x21
   441  000022                     	ds	4
   442  000026                     ??_dtoa:
   443  000026                     ___fldiv@bexp:
   444                           	opt callstack 0
   445                           
   446                           ; 1 bytes @ 0x25
   447  000026                     	ds	1
   448  000027                     ___fldiv@aexp:
   449                           	opt callstack 0
   450                           
   451                           ; 1 bytes @ 0x26
   452  000027                     	ds	1
   453  000028                     ?___flmul:
   454                           	opt callstack 0
   455  000028                     ___flmul@b:
   456                           	opt callstack 0
   457                           
   458                           ; 4 bytes @ 0x27
   459  000028                     	ds	4
   460  00002C                     ___flmul@a:
   461                           	opt callstack 0
   462                           
   463                           ; 4 bytes @ 0x2B
   464  00002C                     	ds	2
   465  00002E                     _dtoa$335:
   466                           	opt callstack 0
   467                           
   468                           ; 2 bytes @ 0x2D
   469  00002E                     	ds	2
   470  000030                     ??___flmul:
   471  000030                     dtoa@p:
   472                           	opt callstack 0
   473                           
   474                           ; 2 bytes @ 0x2F
   475  000030                     	ds	2
   476  000032                     dtoa@w:
   477                           	opt callstack 0
   478                           
   479                           ; 2 bytes @ 0x31
   480  000032                     	ds	2
   481  000034                     ___flmul@sign:
   482                           	opt callstack 0
   483  000034                     dtoa@s:
   484                           	opt callstack 0
   485                           
   486                           ; 2 bytes @ 0x33
   487  000034                     	ds	1
   488  000035                     ___flmul@grs:
   489                           	opt callstack 0
   490                           
   491                           ; 4 bytes @ 0x34
   492  000035                     	ds	1
   493  000036                     dtoa@n:
   494                           	opt callstack 0
   495                           
   496                           ; 8 bytes @ 0x35
   497  000036                     	ds	3
   498  000039                     ___flmul@aexp:
   499                           	opt callstack 0
   500                           
   501                           ; 1 bytes @ 0x38
   502  000039                     	ds	1
   503  00003A                     ___flmul@bexp:
   504                           	opt callstack 0
   505                           
   506                           ; 1 bytes @ 0x39
   507  00003A                     	ds	1
   508  00003B                     ___flmul@prod:
   509                           	opt callstack 0
   510                           
   511                           ; 4 bytes @ 0x3A
   512  00003B                     	ds	3
   513  00003E                     dtoa@i:
   514                           	opt callstack 0
   515                           
   516                           ; 2 bytes @ 0x3D
   517  00003E                     	ds	1
   518  00003F                     ___flmul@temp:
   519                           	opt callstack 0
   520                           
   521                           ; 2 bytes @ 0x3E
   522  00003F                     	ds	1
   523  000040                     ?_vfpfcnvrt:
   524                           	opt callstack 0
   525  000040                     vfpfcnvrt@fp:
   526                           	opt callstack 0
   527                           
   528                           ; 2 bytes @ 0x3F
   529  000040                     	ds	1
   530  000041                     ?___fltol:
   531                           	opt callstack 0
   532  000041                     ___fltol@f1:
   533                           	opt callstack 0
   534                           
   535                           ; 4 bytes @ 0x40
   536  000041                     	ds	1
   537  000042                     vfpfcnvrt@fmt:
   538                           	opt callstack 0
   539                           
   540                           ; 2 bytes @ 0x41
   541  000042                     	ds	2
   542  000044                     vfpfcnvrt@ap:
   543                           	opt callstack 0
   544                           
   545                           ; 2 bytes @ 0x43
   546  000044                     	ds	1
   547  000045                     ??___fltol:
   548                           
   549                           ; 1 bytes @ 0x44
   550  000045                     	ds	1
   551  000046                     ??_vfpfcnvrt:
   552                           
   553                           ; 1 bytes @ 0x45
   554  000046                     	ds	2
   555  000048                     vfpfcnvrt@ll:
   556                           	opt callstack 0
   557                           
   558                           ; 8 bytes @ 0x47
   559  000048                     	ds	1
   560  000049                     ___fltol@sign1:
   561                           	opt callstack 0
   562                           
   563                           ; 1 bytes @ 0x48
   564  000049                     	ds	1
   565  00004A                     ___fltol@exp1:
   566                           	opt callstack 0
   567                           
   568                           ; 1 bytes @ 0x49
   569  00004A                     	ds	1
   570  00004B                     
   571                           ; 1 bytes @ 0x4A
   572  00004B                     	ds	5
   573  000050                     ?_vfprintf:
   574                           	opt callstack 0
   575  000050                     vfprintf@fp:
   576                           	opt callstack 0
   577                           
   578                           ; 2 bytes @ 0x4F
   579  000050                     	ds	2
   580  000052                     vfprintf@fmt:
   581                           	opt callstack 0
   582                           
   583                           ; 2 bytes @ 0x51
   584  000052                     	ds	2
   585  000054                     vfprintf@ap:
   586                           	opt callstack 0
   587                           
   588                           ; 2 bytes @ 0x53
   589  000054                     	ds	2
   590  000056                     vfprintf@cfmt:
   591                           	opt callstack 0
   592                           
   593                           ; 2 bytes @ 0x55
   594  000056                     	ds	2
   595  000058                     ?_sprintf:
   596                           	opt callstack 0
   597  000058                     sprintf@s:
   598                           	opt callstack 0
   599                           
   600                           ; 2 bytes @ 0x57
   601  000058                     	ds	2
   602  00005A                     sprintf@fmt:
   603                           	opt callstack 0
   604                           
   605                           ; 2 bytes @ 0x59
   606  00005A                     	ds	4
   607  00005E                     
   608                           ; 1 bytes @ 0x5D
   609 ;;
   610 ;;Main: autosize = 0, tempsize = 0, incstack = 0, save=0
   611 ;;
   612 ;; *************** function _main *****************
   613 ;; Defined at:
   614 ;;		line 10 in file "main.c"
   615 ;; Parameters:    Size  Location     Type
   616 ;;		None
   617 ;; Auto vars:     Size  Location     Type
   618 ;;  Total_distan   40   50[BANK0 ] float [10]
   619 ;;  Total_distan   40   10[BANK0 ] float [10]
   620 ;; Return value:  Size  Location     Type
   621 ;;                  1    wreg      void 
   622 ;; Registers used:
   623 ;;		wreg, fsr1l, fsr1h, fsr2l, fsr2h, status,2, status,0, tblptrl, tblptrh, tblptru, prodl, prodh, cstack
   624 ;; Tracked objects:
   625 ;;		On entry : 0/0
   626 ;;		On exit  : 0/0
   627 ;;		Unchanged: 0/0
   628 ;; Data sizes:     COMRAM   BANK0   BANK1   BANK2   BANK3   BANK4   BANK5
   629 ;;      Params:         0       0       0       0       0       0       0
   630 ;;      Locals:         0      80       0       0       0       0       0
   631 ;;      Temps:          0       0       0       0       0       0       0
   632 ;;      Totals:         0      80       0       0       0       0       0
   633 ;;Total ram usage:       80 bytes
   634 ;; Hardware stack levels required when called:    8
   635 ;; This function calls:
   636 ;;		_LCD_Init
   637 ;;		_LCD_String
   638 ;;		_LCD_String_xy
   639 ;;		_find_distance
   640 ;;		_find_distance2
   641 ;;		_sprintf
   642 ;; This function is called by:
   643 ;;		Startup code after reset
   644 ;; This function uses a non-reentrant model
   645 ;;
   646                           
   647                           	psect	text0
   648  00157C                     __ptext0:
   649                           	opt callstack 0
   650  00157C                     _main:
   651                           	opt callstack 23
   652  00157C                     
   653                           ;main.c: 11:     float Total_distance[10];;main.c: 12:     float Total_distance2[10];;ma
      +                          in.c: 13:     TRISB = 0xFF;
   654  00157C  6893               	setf	147,c	;volatile
   655  00157E                     
   656                           ;main.c: 14:     TRISD = 0x00;
   657  00157E  0E00               	movlw	0
   658  001580  6E95               	movwf	149,c	;volatile
   659                           
   660                           ;main.c: 15:     TRISC = 0x00;
   661  001582  0E00               	movlw	0
   662  001584  6E94               	movwf	148,c	;volatile
   663  001586                     
   664                           ;main.c: 16:     INTCON2bits.RBPU=0;
   665  001586  9EF1               	bcf	241,7,c	;volatile
   666  001588                     
   667                           ;main.c: 17:     LCD_Init();
   668  001588  ECFD  F012         	call	_LCD_Init	;wreg free
   669  00158C                     
   670                           ;main.c: 18:     LATD0 = 0;
   671  00158C  908C               	bcf	3980,0,c	;volatile
   672  00158E                     
   673                           ;main.c: 19:     LATD1 = 0;
   674  00158E  928C               	bcf	3980,1,c	;volatile
   675  001590                     
   676                           ;main.c: 20:     T1CON = 0x80;
   677  001590  0E80               	movlw	128
   678  001592  6ECD               	movwf	205,c	;volatile
   679  001594                     
   680                           ;main.c: 22:     TMR1IF = 0;
   681  001594  909E               	bcf	3998,0,c	;volatile
   682  001596                     
   683                           ;main.c: 23:     TMR1=0;
   684  001596  0E00               	movlw	0
   685  001598  6ECF               	movwf	207,c	;volatile
   686  00159A  0E00               	movlw	0
   687  00159C  6ECE               	movwf	206,c	;volatile
   688  00159E                     
   689                           ;main.c: 24:     LCD_String_xy(1,1," Distance:");
   690  00159E  0E01               	movlw	1
   691  0015A0  6E0B               	movwf	LCD_String_xy@pos^0,c
   692  0015A2  0E01               	movlw	low STR_1
   693  0015A4  6E0C               	movwf	LCD_String_xy@msg^0,c
   694  0015A6  0E06               	movlw	high STR_1
   695  0015A8  6E0D               	movwf	(LCD_String_xy@msg+1)^0,c
   696  0015AA  0E01               	movlw	1
   697  0015AC  ECC2  F012         	call	_LCD_String_xy
   698  0015B0                     l3022:
   699                           
   700                           ;main.c: 26:     {;main.c: 27:         find_distance();
   701  0015B0  EC8B  F00F         	call	_find_distance	;wreg free
   702  0015B4                     
   703                           ;main.c: 28:         if(distance > 0) {
   704  0015B4  0100               	movlb	0	; () banked
   705  0015B6  BFD3               	btfsc	(_distance+1)& (0+255),7,b
   706  0015B8  EFE6  F00A         	goto	u3211
   707  0015BC  51D3               	movf	(_distance+1)& (0+255),w,b
   708  0015BE  E108               	bnz	u3210
   709  0015C0  05D2               	decf	_distance& (0+255),w,b
   710  0015C2  A0D8               	btfss	status,0,c
   711  0015C4  EFE6  F00A         	goto	u3211
   712  0015C8  EFE8  F00A         	goto	u3210
   713  0015CC                     u3211:
   714  0015CC  EF07  F00B         	goto	l3032
   715  0015D0                     u3210:
   716  0015D0                     
   717                           ; BSR set to: 0
   718                           ;main.c: 29:             sprintf(Total_distance,"%d",distance);
   719  0015D0  0E6A               	movlw	low main@Total_distance
   720  0015D2  6E58               	movwf	sprintf@s^0,c
   721  0015D4  0E00               	movlw	high main@Total_distance
   722  0015D6  6E59               	movwf	(sprintf@s+1)^0,c
   723  0015D8  0E13               	movlw	low STR_2
   724  0015DA  6E5A               	movwf	sprintf@fmt^0,c
   725  0015DC  0E06               	movlw	high STR_2
   726  0015DE  6E5B               	movwf	(sprintf@fmt+1)^0,c
   727  0015E0  C0D2  F05C         	movff	_distance,?_sprintf+4
   728  0015E4  C0D3  F05D         	movff	_distance+1,?_sprintf+5
   729  0015E8  ECE6  F011         	call	_sprintf	;wreg free
   730  0015EC                     
   731                           ;main.c: 30:             LCD_String_xy(2,1,Total_distance);
   732  0015EC  0E01               	movlw	1
   733  0015EE  6E0B               	movwf	LCD_String_xy@pos^0,c
   734  0015F0  0E6A               	movlw	low main@Total_distance
   735  0015F2  6E0C               	movwf	LCD_String_xy@msg^0,c
   736  0015F4  0E00               	movlw	high main@Total_distance
   737  0015F6  6E0D               	movwf	(LCD_String_xy@msg+1)^0,c
   738  0015F8  0E02               	movlw	2
   739  0015FA  ECC2  F012         	call	_LCD_String_xy
   740  0015FE                     
   741                           ;main.c: 31:             LCD_String(" cm   ");
   742  0015FE  0E0C               	movlw	low STR_3
   743  001600  6E09               	movwf	LCD_String@msg^0,c
   744  001602  0E06               	movlw	high STR_3
   745  001604  6E0A               	movwf	(LCD_String@msg+1)^0,c
   746  001606  ECB7  F011         	call	_LCD_String	;wreg free
   747                           
   748                           ;main.c: 33:         }
   749  00160A  EF10  F00B         	goto	l3034
   750  00160E                     l3032:
   751                           
   752                           ; BSR set to: 0
   753                           ;main.c: 35:             LCD_String_xy(2,1,"0");
   754  00160E  0E01               	movlw	1
   755  001610  6E0B               	movwf	LCD_String_xy@pos^0,c
   756  001612  0E16               	movlw	low STR_4
   757  001614  6E0C               	movwf	LCD_String_xy@msg^0,c
   758  001616  0E06               	movlw	high STR_4
   759  001618  6E0D               	movwf	(LCD_String_xy@msg+1)^0,c
   760  00161A  0E02               	movlw	2
   761  00161C  ECC2  F012         	call	_LCD_String_xy
   762  001620                     l3034:
   763                           
   764                           ;main.c: 38:         find_distance2();
   765  001620  ECD9  F00E         	call	_find_distance2	;wreg free
   766  001624                     
   767                           ;main.c: 39:         if(distance2 > 0) {
   768  001624  0100               	movlb	0	; () banked
   769  001626  BFD1               	btfsc	(_distance2+1)& (0+255),7,b
   770  001628  EF1E  F00B         	goto	u3221
   771  00162C  51D1               	movf	(_distance2+1)& (0+255),w,b
   772  00162E  E108               	bnz	u3220
   773  001630  05D0               	decf	_distance2& (0+255),w,b
   774  001632  A0D8               	btfss	status,0,c
   775  001634  EF1E  F00B         	goto	u3221
   776  001638  EF20  F00B         	goto	u3220
   777  00163C                     u3221:
   778  00163C  EF3F  F00B         	goto	l3044
   779  001640                     u3220:
   780  001640                     
   781                           ; BSR set to: 0
   782                           ;main.c: 40:             sprintf(Total_distance2,"%d",distance2);
   783  001640  0E92               	movlw	low main@Total_distance2
   784  001642  6E58               	movwf	sprintf@s^0,c
   785  001644  0E00               	movlw	high main@Total_distance2
   786  001646  6E59               	movwf	(sprintf@s+1)^0,c
   787  001648  0E13               	movlw	low STR_2
   788  00164A  6E5A               	movwf	sprintf@fmt^0,c
   789  00164C  0E06               	movlw	high STR_2
   790  00164E  6E5B               	movwf	(sprintf@fmt+1)^0,c
   791  001650  C0D0  F05C         	movff	_distance2,?_sprintf+4
   792  001654  C0D1  F05D         	movff	_distance2+1,?_sprintf+5
   793  001658  ECE6  F011         	call	_sprintf	;wreg free
   794  00165C                     
   795                           ;main.c: 41:             LCD_String_xy(2,10,Total_distance2);
   796  00165C  0E0A               	movlw	10
   797  00165E  6E0B               	movwf	LCD_String_xy@pos^0,c
   798  001660  0E92               	movlw	low main@Total_distance2
   799  001662  6E0C               	movwf	LCD_String_xy@msg^0,c
   800  001664  0E00               	movlw	high main@Total_distance2
   801  001666  6E0D               	movwf	(LCD_String_xy@msg+1)^0,c
   802  001668  0E02               	movlw	2
   803  00166A  ECC2  F012         	call	_LCD_String_xy
   804  00166E                     
   805                           ;main.c: 42:             LCD_String(" cm   ");
   806  00166E  0E0C               	movlw	low STR_3
   807  001670  6E09               	movwf	LCD_String@msg^0,c
   808  001672  0E06               	movlw	high STR_3
   809  001674  6E0A               	movwf	(LCD_String@msg+1)^0,c
   810  001676  ECB7  F011         	call	_LCD_String	;wreg free
   811                           
   812                           ;main.c: 44:         }
   813  00167A  EF48  F00B         	goto	l3046
   814  00167E                     l3044:
   815                           
   816                           ; BSR set to: 0
   817                           ;main.c: 46:             LCD_String_xy(2,10,"0");
   818  00167E  0E0A               	movlw	10
   819  001680  6E0B               	movwf	LCD_String_xy@pos^0,c
   820  001682  0E16               	movlw	low STR_4
   821  001684  6E0C               	movwf	LCD_String_xy@msg^0,c
   822  001686  0E06               	movlw	high STR_4
   823  001688  6E0D               	movwf	(LCD_String_xy@msg+1)^0,c
   824  00168A  0E02               	movlw	2
   825  00168C  ECC2  F012         	call	_LCD_String_xy
   826  001690                     l3046:
   827                           
   828                           ;main.c: 49:         if(distance < 100 && distance2 < 100) {
   829  001690  0100               	movlb	0	; () banked
   830  001692  BFD3               	btfsc	(_distance+1)& (0+255),7,b
   831  001694  EF57  F00B         	goto	u3230
   832  001698  51D3               	movf	(_distance+1)& (0+255),w,b
   833  00169A  E107               	bnz	u3231
   834  00169C  0E64               	movlw	100
   835  00169E  5DD2               	subwf	_distance& (0+255),w,b
   836  0016A0  B0D8               	btfsc	status,0,c
   837  0016A2  EF55  F00B         	goto	u3231
   838  0016A6  EF57  F00B         	goto	u3230
   839  0016AA                     u3231:
   840  0016AA  EF69  F00B         	goto	l3052
   841  0016AE                     u3230:
   842  0016AE                     
   843                           ; BSR set to: 0
   844  0016AE  BFD1               	btfsc	(_distance2+1)& (0+255),7,b
   845  0016B0  EF65  F00B         	goto	u3240
   846  0016B4  51D1               	movf	(_distance2+1)& (0+255),w,b
   847  0016B6  E107               	bnz	u3241
   848  0016B8  0E64               	movlw	100
   849  0016BA  5DD0               	subwf	_distance2& (0+255),w,b
   850  0016BC  B0D8               	btfsc	status,0,c
   851  0016BE  EF63  F00B         	goto	u3241
   852  0016C2  EF65  F00B         	goto	u3240
   853  0016C6                     u3241:
   854  0016C6  EF69  F00B         	goto	l3052
   855  0016CA                     u3240:
   856  0016CA                     
   857                           ; BSR set to: 0
   858                           ;main.c: 50:             PORTC = 0xF0;
   859  0016CA  0EF0               	movlw	240
   860  0016CC  6E82               	movwf	130,c	;volatile
   861                           
   862                           ;main.c: 51:         }
   863  0016CE  EFD8  F00A         	goto	l3022
   864  0016D2                     l3052:
   865                           
   866                           ; BSR set to: 0
   867  0016D2  BFD3               	btfsc	(_distance+1)& (0+255),7,b
   868  0016D4  EF75  F00B         	goto	u3251
   869  0016D8  51D3               	movf	(_distance+1)& (0+255),w,b
   870  0016DA  E109               	bnz	u3250
   871  0016DC  0E65               	movlw	101
   872  0016DE  5DD2               	subwf	_distance& (0+255),w,b
   873  0016E0  A0D8               	btfss	status,0,c
   874  0016E2  EF75  F00B         	goto	u3251
   875  0016E6  EF77  F00B         	goto	u3250
   876  0016EA                     u3251:
   877  0016EA  EF89  F00B         	goto	l3058
   878  0016EE                     u3250:
   879  0016EE                     
   880                           ; BSR set to: 0
   881  0016EE  BFD1               	btfsc	(_distance2+1)& (0+255),7,b
   882  0016F0  EF85  F00B         	goto	u3260
   883  0016F4  51D1               	movf	(_distance2+1)& (0+255),w,b
   884  0016F6  E107               	bnz	u3261
   885  0016F8  0E65               	movlw	101
   886  0016FA  5DD0               	subwf	_distance2& (0+255),w,b
   887  0016FC  B0D8               	btfsc	status,0,c
   888  0016FE  EF83  F00B         	goto	u3261
   889  001702  EF85  F00B         	goto	u3260
   890  001706                     u3261:
   891  001706  EF89  F00B         	goto	l3058
   892  00170A                     u3260:
   893  00170A                     
   894                           ; BSR set to: 0
   895                           ;main.c: 53:             PORTC = 0x30;
   896  00170A  0E30               	movlw	48
   897  00170C  6E82               	movwf	130,c	;volatile
   898                           
   899                           ;main.c: 54:         }
   900  00170E  EFD8  F00A         	goto	l3022
   901  001712                     l3058:
   902                           
   903                           ; BSR set to: 0
   904  001712  BFD3               	btfsc	(_distance+1)& (0+255),7,b
   905  001714  EF97  F00B         	goto	u3270
   906  001718  51D3               	movf	(_distance+1)& (0+255),w,b
   907  00171A  E107               	bnz	u3271
   908  00171C  0E65               	movlw	101
   909  00171E  5DD2               	subwf	_distance& (0+255),w,b
   910  001720  B0D8               	btfsc	status,0,c
   911  001722  EF95  F00B         	goto	u3271
   912  001726  EF97  F00B         	goto	u3270
   913  00172A                     u3271:
   914  00172A  EFA9  F00B         	goto	l3064
   915  00172E                     u3270:
   916  00172E                     
   917                           ; BSR set to: 0
   918  00172E  BFD1               	btfsc	(_distance2+1)& (0+255),7,b
   919  001730  EFA3  F00B         	goto	u3281
   920  001734  51D1               	movf	(_distance2+1)& (0+255),w,b
   921  001736  E109               	bnz	u3280
   922  001738  0E65               	movlw	101
   923  00173A  5DD0               	subwf	_distance2& (0+255),w,b
   924  00173C  A0D8               	btfss	status,0,c
   925  00173E  EFA3  F00B         	goto	u3281
   926  001742  EFA5  F00B         	goto	u3280
   927  001746                     u3281:
   928  001746  EFA9  F00B         	goto	l3064
   929  00174A                     u3280:
   930  00174A                     
   931                           ; BSR set to: 0
   932                           ;main.c: 56:             PORTC = 0xC0;
   933  00174A  0EC0               	movlw	192
   934  00174C  6E82               	movwf	130,c	;volatile
   935                           
   936                           ;main.c: 57:         }
   937  00174E  EFD8  F00A         	goto	l3022
   938  001752                     l3064:
   939                           
   940                           ; BSR set to: 0
   941                           ;main.c: 59:             PORTC = 0x00;
   942  001752  0E00               	movlw	0
   943  001754  6E82               	movwf	130,c	;volatile
   944  001756  EFD8  F00A         	goto	l3022
   945  00175A  EF00  F000         	goto	start
   946  00175E                     __end_of_main:
   947                           	opt callstack 0
   948                           
   949 ;; *************** function _sprintf *****************
   950 ;; Defined at:
   951 ;;		line 9 in file "C:\Program Files (x86)\Microchip\xc8\v2.10\pic\sources\c99\common\nf_sprintf.c"
   952 ;; Parameters:    Size  Location     Type
   953 ;;  s               2   87[COMRAM] PTR unsigned char 
   954 ;;		 -> main@Total_distance2(40), main@Total_distance(40), 
   955 ;;  fmt             2   89[COMRAM] PTR const unsigned char 
   956 ;;		 -> STR_5(3), STR_2(3), 
   957 ;; Auto vars:     Size  Location     Type
   958 ;;  f               6    4[BANK0 ] struct _IO_FILE
   959 ;;  ap              2    2[BANK0 ] PTR void [1]
   960 ;;		 -> ?_sprintf(2), 
   961 ;;  ret             2    0        int 
   962 ;; Return value:  Size  Location     Type
   963 ;;                  2   87[COMRAM] int 
   964 ;; Registers used:
   965 ;;		wreg, fsr1l, fsr1h, fsr2l, fsr2h, status,2, status,0, tblptrl, tblptrh, tblptru, cstack
   966 ;; Tracked objects:
   967 ;;		On entry : 0/0
   968 ;;		On exit  : 0/0
   969 ;;		Unchanged: 0/0
   970 ;; Data sizes:     COMRAM   BANK0   BANK1   BANK2   BANK3   BANK4   BANK5
   971 ;;      Params:         6       0       0       0       0       0       0
   972 ;;      Locals:         0      10       0       0       0       0       0
   973 ;;      Temps:          0       0       0       0       0       0       0
   974 ;;      Totals:         6      10       0       0       0       0       0
   975 ;;Total ram usage:       16 bytes
   976 ;; Hardware stack levels used:    1
   977 ;; Hardware stack levels required when called:    7
   978 ;; This function calls:
   979 ;;		_vfprintf
   980 ;; This function is called by:
   981 ;;		_main
   982 ;; This function uses a non-reentrant model
   983 ;;
   984                           
   985                           	psect	text1
   986  0023CC                     __ptext1:
   987                           	opt callstack 0
   988  0023CC                     _sprintf:
   989                           	opt callstack 23
   990  0023CC  0E5C               	movlw	low (?_sprintf+4)
   991  0023CE  0100               	movlb	0	; () banked
   992  0023D0  6F62               	movwf	sprintf@ap& (0+255),b
   993  0023D2  0E00               	movlw	high (?_sprintf+4)
   994  0023D4  6F63               	movwf	(sprintf@ap+1)& (0+255),b
   995  0023D6  C058  F064         	movff	sprintf@s,sprintf@f
   996  0023DA  C059  F065         	movff	sprintf@s+1,sprintf@f+1
   997  0023DE                     
   998                           ; BSR set to: 0
   999  0023DE  0E00               	movlw	0
  1000  0023E0  6F67               	movwf	(sprintf@f+3)& (0+255),b
  1001  0023E2  0E00               	movlw	0
  1002  0023E4  6F66               	movwf	(sprintf@f+2)& (0+255),b
  1003  0023E6                     
  1004                           ; BSR set to: 0
  1005  0023E6  0E00               	movlw	0
  1006  0023E8  6F69               	movwf	(sprintf@f+5)& (0+255),b
  1007  0023EA  0E00               	movlw	0
  1008  0023EC  6F68               	movwf	(sprintf@f+4)& (0+255),b
  1009  0023EE                     
  1010                           ; BSR set to: 0
  1011  0023EE  0E64               	movlw	low sprintf@f
  1012  0023F0  6E50               	movwf	vfprintf@fp^0,c
  1013  0023F2  0E00               	movlw	high sprintf@f
  1014  0023F4  6E51               	movwf	(vfprintf@fp+1)^0,c
  1015  0023F6  C05A  F052         	movff	sprintf@fmt,vfprintf@fmt
  1016  0023FA  C05B  F053         	movff	sprintf@fmt+1,vfprintf@fmt+1
  1017  0023FE  0E62               	movlw	low sprintf@ap
  1018  002400  6E54               	movwf	vfprintf@ap^0,c
  1019  002402  0E00               	movlw	high sprintf@ap
  1020  002404  6E55               	movwf	(vfprintf@ap+1)^0,c
  1021  002406  EC86  F011         	call	_vfprintf	;wreg free
  1022  00240A  0100               	movlb	0	; () banked
  1023  00240C  5166               	movf	(sprintf@f+2)& (0+255),w,b
  1024  00240E  2458               	addwf	sprintf@s^0,w,c
  1025  002410  6ED9               	movwf	fsr2l,c
  1026  002412  5167               	movf	(sprintf@f+3)& (0+255),w,b
  1027  002414  2059               	addwfc	(sprintf@s+1)^0,w,c
  1028  002416  6EDA               	movwf	fsr2h,c
  1029  002418  0E00               	movlw	0
  1030  00241A  6EDF               	movwf	indf2,c
  1031  00241C                     
  1032                           ; BSR set to: 0
  1033  00241C  0012               	return		;funcret
  1034  00241E                     __end_of_sprintf:
  1035                           	opt callstack 0
  1036                           
  1037 ;; *************** function _vfprintf *****************
  1038 ;; Defined at:
  1039 ;;		line 1368 in file "C:\Program Files (x86)\Microchip\xc8\v2.10\pic\sources\c99\common\doprnt.c"
  1040 ;; Parameters:    Size  Location     Type
  1041 ;;  fp              2   79[COMRAM] PTR struct _IO_FILE
  1042 ;;		 -> sprintf@f(6), 
  1043 ;;  fmt             2   81[COMRAM] PTR const unsigned char 
  1044 ;;		 -> STR_5(3), STR_2(3), 
  1045 ;;  ap              2   83[COMRAM] PTR PTR void 
  1046 ;;		 -> sprintf@ap(2), 
  1047 ;; Auto vars:     Size  Location     Type
  1048 ;;  cfmt            2   85[COMRAM] PTR unsigned char 
  1049 ;;		 -> STR_5(3), STR_2(3), 
  1050 ;; Return value:  Size  Location     Type
  1051 ;;                  2   79[COMRAM] int 
  1052 ;; Registers used:
  1053 ;;		wreg, fsr1l, fsr1h, fsr2l, fsr2h, status,2, status,0, tblptrl, tblptrh, tblptru, cstack
  1054 ;; Tracked objects:
  1055 ;;		On entry : 0/0
  1056 ;;		On exit  : 0/0
  1057 ;;		Unchanged: 0/0
  1058 ;; Data sizes:     COMRAM   BANK0   BANK1   BANK2   BANK3   BANK4   BANK5
  1059 ;;      Params:         6       0       0       0       0       0       0
  1060 ;;      Locals:         2       0       0       0       0       0       0
  1061 ;;      Temps:          0       0       0       0       0       0       0
  1062 ;;      Totals:         8       0       0       0       0       0       0
  1063 ;;Total ram usage:        8 bytes
  1064 ;; Hardware stack levels used:    1
  1065 ;; Hardware stack levels required when called:    6
  1066 ;; This function calls:
  1067 ;;		_vfpfcnvrt
  1068 ;; This function is called by:
  1069 ;;		_sprintf
  1070 ;; This function uses a non-reentrant model
  1071 ;;
  1072                           
  1073                           	psect	text2
  1074  00230C                     __ptext2:
  1075                           	opt callstack 0
  1076  00230C                     _vfprintf:
  1077                           	opt callstack 23
  1078  00230C                     
  1079                           ;C:\Program Files (x86)\Microchip\xc8\v2.10\pic\sources\c99\common\doprnt.c: 1368: int v
      +                          fprintf(FILE *fp, const char *fmt, va_list ap);C:\Program Files (x86)\Microchip\xc8\v2.1
      +                          0\pic\sources\c99\common\doprnt.c: 1369: {;C:\Program Files (x86)\Microchip\xc8\v2.10\pi
      +                          c\sources\c99\common\doprnt.c: 1371:     char *cfmt;;C:\Program Files (x86)\Microchip\xc
      +                          8\v2.10\pic\sources\c99\common\doprnt.c: 1373:     cfmt = (char *)fmt;
  1080  00230C  C052  F056         	movff	vfprintf@fmt,vfprintf@cfmt
  1081  002310  C053  F057         	movff	vfprintf@fmt+1,vfprintf@cfmt+1
  1082  002314                     
  1083                           ;C:\Program Files (x86)\Microchip\xc8\v2.10\pic\sources\c99\common\doprnt.c: 1374:     n
      +                          out = 0;
  1084  002314  0E00               	movlw	0
  1085  002316  0100               	movlb	0	; () banked
  1086  002318  6FCB               	movwf	(_nout+1)& (0+255),b
  1087  00231A  0E00               	movlw	0
  1088  00231C  6FCA               	movwf	_nout& (0+255),b
  1089                           
  1090                           ;C:\Program Files (x86)\Microchip\xc8\v2.10\pic\sources\c99\common\doprnt.c: 1375:     w
      +                          hile (*cfmt) {
  1091  00231E  EFA4  F011         	goto	l2356
  1092  002322                     l2354:
  1093                           
  1094                           ; BSR set to: 0
  1095                           ;C:\Program Files (x86)\Microchip\xc8\v2.10\pic\sources\c99\common\doprnt.c: 1376:      
      +                             nout += vfpfcnvrt(fp, &cfmt, ap);
  1096  002322  C050  F040         	movff	vfprintf@fp,vfpfcnvrt@fp
  1097  002326  C051  F041         	movff	vfprintf@fp+1,vfpfcnvrt@fp+1
  1098  00232A  0E56               	movlw	low vfprintf@cfmt
  1099  00232C  6E42               	movwf	vfpfcnvrt@fmt^0,c
  1100  00232E  0E00               	movlw	high vfprintf@cfmt
  1101  002330  6E43               	movwf	(vfpfcnvrt@fmt+1)^0,c
  1102  002332  C054  F044         	movff	vfprintf@ap,vfpfcnvrt@ap
  1103  002336  C055  F045         	movff	vfprintf@ap+1,vfpfcnvrt@ap+1
  1104  00233A  ECAF  F00B         	call	_vfpfcnvrt	;wreg free
  1105  00233E  5040               	movf	?_vfpfcnvrt^0,w,c
  1106  002340  0100               	movlb	0	; () banked
  1107  002342  27CA               	addwf	_nout& (0+255),f,b
  1108  002344  5041               	movf	(?_vfpfcnvrt+1)^0,w,c
  1109  002346  23CB               	addwfc	(_nout+1)& (0+255),f,b
  1110  002348                     l2356:
  1111                           
  1112                           ; BSR set to: 0
  1113                           ;C:\Program Files (x86)\Microchip\xc8\v2.10\pic\sources\c99\common\doprnt.c: 1375:     w
      +                          hile (*cfmt) {
  1114  002348  C056  FFF6         	movff	vfprintf@cfmt,tblptrl
  1115  00234C  C057  FFF7         	movff	vfprintf@cfmt+1,tblptrh
  1116  002350                     	if	0	;tblptru may be non-zero
  1117  002350                     	endif
  1118  002350                     	if	0	;tblptru may be non-zero
  1119  002350                     	endif
  1120  002350  0008               	tblrd		*
  1121  002352  50F5               	movf	tablat,w,c
  1122  002354  0900               	iorlw	0
  1123  002356  A4D8               	btfss	status,2,c
  1124  002358  EFB0  F011         	goto	u2131
  1125  00235C  EFB2  F011         	goto	u2130
  1126  002360                     u2131:
  1127  002360  EF91  F011         	goto	l2354
  1128  002364                     u2130:
  1129  002364                     
  1130                           ; BSR set to: 0
  1131                           ;C:\Program Files (x86)\Microchip\xc8\v2.10\pic\sources\c99\common\doprnt.c: 1378:     r
      +                          eturn nout;
  1132  002364  C0CA  F050         	movff	_nout,?_vfprintf
  1133  002368  C0CB  F051         	movff	_nout+1,?_vfprintf+1
  1134  00236C                     
  1135                           ; BSR set to: 0
  1136  00236C  0012               	return		;funcret
  1137  00236E                     __end_of_vfprintf:
  1138                           	opt callstack 0
  1139                           
  1140 ;; *************** function _vfpfcnvrt *****************
  1141 ;; Defined at:
  1142 ;;		line 670 in file "C:\Program Files (x86)\Microchip\xc8\v2.10\pic\sources\c99\common\doprnt.c"
  1143 ;; Parameters:    Size  Location     Type
  1144 ;;  fp              2   63[COMRAM] PTR struct _IO_FILE
  1145 ;;		 -> sprintf@f(6), 
  1146 ;;  fmt             2   65[COMRAM] PTR PTR unsigned char 
  1147 ;;		 -> vfprintf@cfmt(2), 
  1148 ;;  ap              2   67[COMRAM] PTR PTR void 
  1149 ;;		 -> sprintf@ap(2), 
  1150 ;; Auto vars:     Size  Location     Type
  1151 ;;  ll              8   71[COMRAM] long long 
  1152 ;;  llu             8    0        unsigned long long 
  1153 ;;  f               4    0        unsigned long long 
  1154 ;;  vp              3    0        PTR void 
  1155 ;;  ct              3    0        unsigned char [3]
  1156 ;;  cp              3    0        PTR unsigned char 
  1157 ;;  i               2    0        int 
  1158 ;;  done            2    0        int 
  1159 ;;  c               1    0        unsigned char 
  1160 ;; Return value:  Size  Location     Type
  1161 ;;                  2   63[COMRAM] int 
  1162 ;; Registers used:
  1163 ;;		wreg, fsr1l, fsr1h, fsr2l, fsr2h, status,2, status,0, tblptrl, tblptrh, tblptru, cstack
  1164 ;; Tracked objects:
  1165 ;;		On entry : 0/0
  1166 ;;		On exit  : 0/0
  1167 ;;		Unchanged: 0/0
  1168 ;; Data sizes:     COMRAM   BANK0   BANK1   BANK2   BANK3   BANK4   BANK5
  1169 ;;      Params:         6       0       0       0       0       0       0
  1170 ;;      Locals:         8       0       0       0       0       0       0
  1171 ;;      Temps:          2       0       0       0       0       0       0
  1172 ;;      Totals:        16       0       0       0       0       0       0
  1173 ;;Total ram usage:       16 bytes
  1174 ;; Hardware stack levels used:    1
  1175 ;; Hardware stack levels required when called:    5
  1176 ;; This function calls:
  1177 ;;		_dtoa
  1178 ;;		_fputc
  1179 ;; This function is called by:
  1180 ;;		_vfprintf
  1181 ;; This function uses a non-reentrant model
  1182 ;;
  1183                           
  1184                           	psect	text3
  1185  00175E                     __ptext3:
  1186                           	opt callstack 0
  1187  00175E                     _vfpfcnvrt:
  1188                           	opt callstack 23
  1189  00175E                     
  1190                           ;C:\Program Files (x86)\Microchip\xc8\v2.10\pic\sources\c99\common\doprnt.c: 670: static
      +                           int vfpfcnvrt(FILE *fp, char *fmt[], va_list ap);C:\Program Files (x86)\Microchip\xc8\v
      +                          2.10\pic\sources\c99\common\doprnt.c: 671: {;C:\Program Files (x86)\Microchip\xc8\v2.10\
      +                          pic\sources\c99\common\doprnt.c: 672:     char c, *cp, ct[3];;C:\Program Files (x86)\Mic
      +                          rochip\xc8\v2.10\pic\sources\c99\common\doprnt.c: 673:     int done, i;;C:\Program Files
      +                           (x86)\Microchip\xc8\v2.10\pic\sources\c99\common\doprnt.c: 674:     long long ll;
  1191  00175E  C042  FFD9         	movff	vfpfcnvrt@fmt,fsr2l
  1192  001762  C043  FFDA         	movff	vfpfcnvrt@fmt+1,fsr2h
  1193  001766  CFDE FFF6          	movff	postinc2,tblptrl
  1194  00176A  CFDD FFF7          	movff	postdec2,tblptrh
  1195  00176E                     	if	0	;tblptru may be non-zero
  1196  00176E                     	endif
  1197  00176E                     	if	0	;tblptru may be non-zero
  1198  00176E                     	endif
  1199  00176E  0008               	tblrd		*
  1200  001770  50F5               	movf	tablat,w,c
  1201  001772  0A25               	xorlw	37
  1202  001774  A4D8               	btfss	status,2,c
  1203  001776  EFBF  F00B         	goto	u2061
  1204  00177A  EFC1  F00B         	goto	u2060
  1205  00177E                     u2061:
  1206  00177E  EF6D  F00C         	goto	l2302
  1207  001782                     u2060:
  1208  001782                     
  1209                           ;C:\Program Files (x86)\Microchip\xc8\v2.10\pic\sources\c99\common\doprnt.c: 681:       
      +                            ++*fmt;
  1210  001782  C042  FFD9         	movff	vfpfcnvrt@fmt,fsr2l
  1211  001786  C043  FFDA         	movff	vfpfcnvrt@fmt+1,fsr2h
  1212  00178A  2ADE               	incf	postinc2,f,c
  1213  00178C  0E00               	movlw	0
  1214  00178E  22DD               	addwfc	postdec2,f,c
  1215  001790                     
  1216                           ;C:\Program Files (x86)\Microchip\xc8\v2.10\pic\sources\c99\common\doprnt.c: 683:       
      +                            flags = width = 0;
  1217  001790  0E00               	movlw	0
  1218  001792  0100               	movlb	0	; () banked
  1219  001794  6FCD               	movwf	(_width+1)& (0+255),b
  1220  001796  0E00               	movlw	0
  1221  001798  6FCC               	movwf	_width& (0+255),b
  1222  00179A  C0CC  F05E         	movff	_width,_flags
  1223  00179E  C0CD  F05F         	movff	_width+1,_flags+1
  1224  0017A2                     
  1225                           ; BSR set to: 0
  1226                           ;C:\Program Files (x86)\Microchip\xc8\v2.10\pic\sources\c99\common\doprnt.c: 684:       
      +                            prec = -1;
  1227  0017A2  69CE               	setf	_prec& (0+255),b
  1228  0017A4  69CF               	setf	(_prec+1)& (0+255),b
  1229  0017A6                     
  1230                           ; BSR set to: 0
  1231                           ;C:\Program Files (x86)\Microchip\xc8\v2.10\pic\sources\c99\common\doprnt.c: 825:       
      +                            if ((*fmt[0] == 'd') || (*fmt[0] == 'i')) {
  1232  0017A6  C042  FFD9         	movff	vfpfcnvrt@fmt,fsr2l
  1233  0017AA  C043  FFDA         	movff	vfpfcnvrt@fmt+1,fsr2h
  1234  0017AE  CFDE FFF6          	movff	postinc2,tblptrl
  1235  0017B2  CFDD FFF7          	movff	postdec2,tblptrh
  1236  0017B6                     	if	0	;tblptru may be non-zero
  1237  0017B6                     	endif
  1238  0017B6                     	if	0	;tblptru may be non-zero
  1239  0017B6                     	endif
  1240  0017B6  0008               	tblrd		*
  1241  0017B8  50F5               	movf	tablat,w,c
  1242  0017BA  0A64               	xorlw	100
  1243  0017BC  B4D8               	btfsc	status,2,c
  1244  0017BE  EFE3  F00B         	goto	u2071
  1245  0017C2  EFE5  F00B         	goto	u2070
  1246  0017C6                     u2071:
  1247  0017C6  EFF7  F00B         	goto	l2280
  1248  0017CA                     u2070:
  1249  0017CA                     
  1250                           ; BSR set to: 0
  1251  0017CA  C042  FFD9         	movff	vfpfcnvrt@fmt,fsr2l
  1252  0017CE  C043  FFDA         	movff	vfpfcnvrt@fmt+1,fsr2h
  1253  0017D2  CFDE FFF6          	movff	postinc2,tblptrl
  1254  0017D6  CFDD FFF7          	movff	postdec2,tblptrh
  1255  0017DA                     	if	0	;tblptru may be non-zero
  1256  0017DA                     	endif
  1257  0017DA                     	if	0	;tblptru may be non-zero
  1258  0017DA                     	endif
  1259  0017DA  0008               	tblrd		*
  1260  0017DC  50F5               	movf	tablat,w,c
  1261  0017DE  0A69               	xorlw	105
  1262  0017E0  A4D8               	btfss	status,2,c
  1263  0017E2  EFF5  F00B         	goto	u2081
  1264  0017E6  EFF7  F00B         	goto	u2080
  1265  0017EA                     u2081:
  1266  0017EA  EF37  F00C         	goto	l2286
  1267  0017EE                     u2080:
  1268  0017EE                     l2280:
  1269                           
  1270                           ; BSR set to: 0
  1271                           ;C:\Program Files (x86)\Microchip\xc8\v2.10\pic\sources\c99\common\doprnt.c: 827:       
      +                                ++*fmt;
  1272  0017EE  C042  FFD9         	movff	vfpfcnvrt@fmt,fsr2l
  1273  0017F2  C043  FFDA         	movff	vfpfcnvrt@fmt+1,fsr2h
  1274  0017F6  2ADE               	incf	postinc2,f,c
  1275  0017F8  0E00               	movlw	0
  1276  0017FA  22DD               	addwfc	postdec2,f,c
  1277                           
  1278                           ;C:\Program Files (x86)\Microchip\xc8\v2.10\pic\sources\c99\common\doprnt.c: 828:       
      +                                ll = (long long)(*(int *)__va_arg(*(int **)ap, (int)0));
  1279  0017FC  C044  FFD9         	movff	vfpfcnvrt@ap,fsr2l
  1280  001800  C045  FFDA         	movff	vfpfcnvrt@ap+1,fsr2h
  1281  001804  CFDF F046          	movff	indf2,??_vfpfcnvrt
  1282  001808  0E02               	movlw	2
  1283  00180A  26DE               	addwf	postinc2,f,c
  1284  00180C  CFDF F047          	movff	indf2,??_vfpfcnvrt+1
  1285  001810  0E00               	movlw	0
  1286  001812  22DD               	addwfc	postdec2,f,c
  1287  001814  C046  FFD9         	movff	??_vfpfcnvrt,fsr2l
  1288  001818  C047  FFDA         	movff	??_vfpfcnvrt+1,fsr2h
  1289  00181C  CFDE F048          	movff	postinc2,vfpfcnvrt@ll
  1290  001820  CFDD F049          	movff	postdec2,vfpfcnvrt@ll+1
  1291  001824  0E00               	movlw	0
  1292  001826  BE49               	btfsc	(vfpfcnvrt@ll+1)^0,7,c
  1293  001828  0EFF               	movlw	-1
  1294  00182A  6E4A               	movwf	(vfpfcnvrt@ll+2)^0,c
  1295  00182C  6E4B               	movwf	(vfpfcnvrt@ll+3)^0,c
  1296  00182E  6E4C               	movwf	(vfpfcnvrt@ll+4)^0,c
  1297  001830  6E4D               	movwf	(vfpfcnvrt@ll+5)^0,c
  1298  001832  6E4E               	movwf	(vfpfcnvrt@ll+6)^0,c
  1299  001834  6E4F               	movwf	(vfpfcnvrt@ll+7)^0,c
  1300  001836                     
  1301                           ; BSR set to: 0
  1302                           ;C:\Program Files (x86)\Microchip\xc8\v2.10\pic\sources\c99\common\doprnt.c: 830:       
      +                                return dtoa(fp, ll);
  1303  001836  C040  F01C         	movff	vfpfcnvrt@fp,dtoa@fp
  1304  00183A  C041  F01D         	movff	vfpfcnvrt@fp+1,dtoa@fp+1
  1305  00183E  C048  F01E         	movff	vfpfcnvrt@ll,dtoa@d
  1306  001842  C049  F01F         	movff	vfpfcnvrt@ll+1,dtoa@d+1
  1307  001846  C04A  F020         	movff	vfpfcnvrt@ll+2,dtoa@d+2
  1308  00184A  C04B  F021         	movff	vfpfcnvrt@ll+3,dtoa@d+3
  1309  00184E  C04C  F022         	movff	vfpfcnvrt@ll+4,dtoa@d+4
  1310  001852  C04D  F023         	movff	vfpfcnvrt@ll+5,dtoa@d+5
  1311  001856  C04E  F024         	movff	vfpfcnvrt@ll+6,dtoa@d+6
  1312  00185A  C04F  F025         	movff	vfpfcnvrt@ll+7,dtoa@d+7
  1313  00185E  EC4F  F009         	call	_dtoa	;wreg free
  1314  001862  C01C  F040         	movff	?_dtoa,?_vfpfcnvrt
  1315  001866  C01D  F041         	movff	?_dtoa+1,?_vfpfcnvrt+1
  1316  00186A  EF88  F00C         	goto	l270
  1317  00186E                     l2286:
  1318                           
  1319                           ; BSR set to: 0
  1320                           ;C:\Program Files (x86)\Microchip\xc8\v2.10\pic\sources\c99\common\doprnt.c: 1350:      
      +                             if ((*fmt)[0] == '%') {
  1321  00186E  C042  FFD9         	movff	vfpfcnvrt@fmt,fsr2l
  1322  001872  C043  FFDA         	movff	vfpfcnvrt@fmt+1,fsr2h
  1323  001876  CFDE FFF6          	movff	postinc2,tblptrl
  1324  00187A  CFDD FFF7          	movff	postdec2,tblptrh
  1325  00187E                     	if	0	;tblptru may be non-zero
  1326  00187E                     	endif
  1327  00187E                     	if	0	;tblptru may be non-zero
  1328  00187E                     	endif
  1329  00187E  0008               	tblrd		*
  1330  001880  50F5               	movf	tablat,w,c
  1331  001882  0A25               	xorlw	37
  1332  001884  A4D8               	btfss	status,2,c
  1333  001886  EF47  F00C         	goto	u2091
  1334  00188A  EF49  F00C         	goto	u2090
  1335  00188E                     u2091:
  1336  00188E  EF60  F00C         	goto	l2296
  1337  001892                     u2090:
  1338  001892                     
  1339                           ; BSR set to: 0
  1340                           ;C:\Program Files (x86)\Microchip\xc8\v2.10\pic\sources\c99\common\doprnt.c: 1351:      
      +                                 ++*fmt;
  1341  001892  C042  FFD9         	movff	vfpfcnvrt@fmt,fsr2l
  1342  001896  C043  FFDA         	movff	vfpfcnvrt@fmt+1,fsr2h
  1343  00189A  2ADE               	incf	postinc2,f,c
  1344  00189C  0E00               	movlw	0
  1345  00189E  22DD               	addwfc	postdec2,f,c
  1346  0018A0                     
  1347                           ; BSR set to: 0
  1348                           ;C:\Program Files (x86)\Microchip\xc8\v2.10\pic\sources\c99\common\doprnt.c: 1352:      
      +                                 fputc((int)'%', fp);
  1349  0018A0  0E00               	movlw	0
  1350  0018A2  6E02               	movwf	(fputc@c+1)^0,c
  1351  0018A4  0E25               	movlw	37
  1352  0018A6  6E01               	movwf	fputc@c^0,c
  1353  0018A8  C040  F003         	movff	vfpfcnvrt@fp,fputc@fp
  1354  0018AC  C041  F004         	movff	vfpfcnvrt@fp+1,fputc@fp+1
  1355  0018B0  ECC0  F010         	call	_fputc	;wreg free
  1356  0018B4                     l2292:
  1357                           
  1358                           ;C:\Program Files (x86)\Microchip\xc8\v2.10\pic\sources\c99\common\doprnt.c: 1353:      
      +                                 return 1;
  1359  0018B4  0E00               	movlw	0
  1360  0018B6  6E41               	movwf	(?_vfpfcnvrt+1)^0,c
  1361  0018B8  0E01               	movlw	1
  1362  0018BA  6E40               	movwf	?_vfpfcnvrt^0,c
  1363  0018BC  EF88  F00C         	goto	l270
  1364  0018C0                     l2296:
  1365                           
  1366                           ; BSR set to: 0
  1367                           ;C:\Program Files (x86)\Microchip\xc8\v2.10\pic\sources\c99\common\doprnt.c: 1357:      
      +                             ++*fmt;
  1368  0018C0  C042  FFD9         	movff	vfpfcnvrt@fmt,fsr2l
  1369  0018C4  C043  FFDA         	movff	vfpfcnvrt@fmt+1,fsr2h
  1370  0018C8  2ADE               	incf	postinc2,f,c
  1371  0018CA  0E00               	movlw	0
  1372  0018CC  22DD               	addwfc	postdec2,f,c
  1373  0018CE                     
  1374                           ; BSR set to: 0
  1375                           ;C:\Program Files (x86)\Microchip\xc8\v2.10\pic\sources\c99\common\doprnt.c: 1358:      
      +                             return 0;
  1376  0018CE  0E00               	movlw	0
  1377  0018D0  6E41               	movwf	(?_vfpfcnvrt+1)^0,c
  1378  0018D2  0E00               	movlw	0
  1379  0018D4  6E40               	movwf	?_vfpfcnvrt^0,c
  1380  0018D6  EF88  F00C         	goto	l270
  1381  0018DA                     l2302:
  1382                           
  1383                           ;C:\Program Files (x86)\Microchip\xc8\v2.10\pic\sources\c99\common\doprnt.c: 1362:     f
      +                          putc((int)(*fmt)[0], fp);
  1384  0018DA  C042  FFD9         	movff	vfpfcnvrt@fmt,fsr2l
  1385  0018DE  C043  FFDA         	movff	vfpfcnvrt@fmt+1,fsr2h
  1386  0018E2  CFDE FFF6          	movff	postinc2,tblptrl
  1387  0018E6  CFDD FFF7          	movff	postdec2,tblptrh
  1388  0018EA                     	if	0	;tblptru may be non-zero
  1389  0018EA                     	endif
  1390  0018EA                     	if	0	;tblptru may be non-zero
  1391  0018EA                     	endif
  1392  0018EA  0008               	tblrd		*
  1393  0018EC  50F5               	movf	tablat,w,c
  1394  0018EE  6E01               	movwf	fputc@c^0,c
  1395  0018F0  6A02               	clrf	(fputc@c+1)^0,c
  1396  0018F2  C040  F003         	movff	vfpfcnvrt@fp,fputc@fp
  1397  0018F6  C041  F004         	movff	vfpfcnvrt@fp+1,fputc@fp+1
  1398  0018FA  ECC0  F010         	call	_fputc	;wreg free
  1399  0018FE                     
  1400                           ;C:\Program Files (x86)\Microchip\xc8\v2.10\pic\sources\c99\common\doprnt.c: 1363:     +
      +                          +*fmt;
  1401  0018FE  C042  FFD9         	movff	vfpfcnvrt@fmt,fsr2l
  1402  001902  C043  FFDA         	movff	vfpfcnvrt@fmt+1,fsr2h
  1403  001906  2ADE               	incf	postinc2,f,c
  1404  001908  0E00               	movlw	0
  1405  00190A  22DD               	addwfc	postdec2,f,c
  1406  00190C  EF5A  F00C         	goto	l2292
  1407  001910                     l270:
  1408  001910  0012               	return		;funcret
  1409  001912                     __end_of_vfpfcnvrt:
  1410                           	opt callstack 0
  1411                           
  1412 ;; *************** function _dtoa *****************
  1413 ;; Defined at:
  1414 ;;		line 274 in file "C:\Program Files (x86)\Microchip\xc8\v2.10\pic\sources\c99\common\doprnt.c"
  1415 ;; Parameters:    Size  Location     Type
  1416 ;;  fp              2   27[COMRAM] PTR struct _IO_FILE
  1417 ;;		 -> sprintf@f(6), 
  1418 ;;  d               8   29[COMRAM] long long 
  1419 ;; Auto vars:     Size  Location     Type
  1420 ;;  n               8   53[COMRAM] long long 
  1421 ;;  i               2   61[COMRAM] int 
  1422 ;;  s               2   51[COMRAM] int 
  1423 ;;  w               2   49[COMRAM] int 
  1424 ;;  p               2   47[COMRAM] int 
  1425 ;; Return value:  Size  Location     Type
  1426 ;;                  2   27[COMRAM] int 
  1427 ;; Registers used:
  1428 ;;		wreg, fsr1l, fsr1h, fsr2l, fsr2h, status,2, status,0, cstack
  1429 ;; Tracked objects:
  1430 ;;		On entry : 0/0
  1431 ;;		On exit  : 0/0
  1432 ;;		Unchanged: 0/0
  1433 ;; Data sizes:     COMRAM   BANK0   BANK1   BANK2   BANK3   BANK4   BANK5
  1434 ;;      Params:        10       0       0       0       0       0       0
  1435 ;;      Locals:        18       0       0       0       0       0       0
  1436 ;;      Temps:          8       0       0       0       0       0       0
  1437 ;;      Totals:        36       0       0       0       0       0       0
  1438 ;;Total ram usage:       36 bytes
  1439 ;; Hardware stack levels used:    1
  1440 ;; Hardware stack levels required when called:    4
  1441 ;; This function calls:
  1442 ;;		___aodiv
  1443 ;;		___aomod
  1444 ;;		_abs
  1445 ;;		_pad
  1446 ;; This function is called by:
  1447 ;;		_vfpfcnvrt
  1448 ;; This function uses a non-reentrant model
  1449 ;;
  1450                           
  1451                           	psect	text4
  1452  00129E                     __ptext4:
  1453                           	opt callstack 0
  1454  00129E                     _dtoa:
  1455                           	opt callstack 23
  1456  00129E                     
  1457                           ;C:\Program Files (x86)\Microchip\xc8\v2.10\pic\sources\c99\common\doprnt.c: 274: static
      +                           int dtoa(FILE *fp, long long d);C:\Program Files (x86)\Microchip\xc8\v2.10\pic\sources\
      +                          c99\common\doprnt.c: 275: {;C:\Program Files (x86)\Microchip\xc8\v2.10\pic\sources\c99\c
      +                          ommon\doprnt.c: 276:     int i, p, s, w;;C:\Program Files (x86)\Microchip\xc8\v2.10\pic\
      +                          sources\c99\common\doprnt.c: 277:     long long n;;C:\Program Files (x86)\Microchip\xc8\
      +                          v2.10\pic\sources\c99\common\doprnt.c: 280:     n = d;
  1458  00129E  C01E  F036         	movff	dtoa@d,dtoa@n
  1459  0012A2  C01F  F037         	movff	dtoa@d+1,dtoa@n+1
  1460  0012A6  C020  F038         	movff	dtoa@d+2,dtoa@n+2
  1461  0012AA  C021  F039         	movff	dtoa@d+3,dtoa@n+3
  1462  0012AE  C022  F03A         	movff	dtoa@d+4,dtoa@n+4
  1463  0012B2  C023  F03B         	movff	dtoa@d+5,dtoa@n+5
  1464  0012B6  C024  F03C         	movff	dtoa@d+6,dtoa@n+6
  1465  0012BA  C025  F03D         	movff	dtoa@d+7,dtoa@n+7
  1466  0012BE                     
  1467                           ;C:\Program Files (x86)\Microchip\xc8\v2.10\pic\sources\c99\common\doprnt.c: 281:     s 
      +                          = n < 0 ? 1 : 0;
  1468  0012BE  BE3D               	btfsc	(dtoa@n+7)^0,7,c
  1469  0012C0  EF64  F009         	goto	u1911
  1470  0012C4  EF67  F009         	goto	u1910
  1471  0012C8                     u1911:
  1472  0012C8  0E01               	movlw	1
  1473  0012CA  EF68  F009         	goto	u1920
  1474  0012CE                     u1910:
  1475  0012CE  0E00               	movlw	0
  1476  0012D0                     u1920:
  1477  0012D0  6E34               	movwf	dtoa@s^0,c
  1478  0012D2  6A35               	clrf	(dtoa@s+1)^0,c
  1479                           
  1480                           ;C:\Program Files (x86)\Microchip\xc8\v2.10\pic\sources\c99\common\doprnt.c: 282:     if
      +                           (s) {
  1481  0012D4  5034               	movf	dtoa@s^0,w,c
  1482  0012D6  1035               	iorwf	(dtoa@s+1)^0,w,c
  1483  0012D8  B4D8               	btfsc	status,2,c
  1484  0012DA  EF71  F009         	goto	u1931
  1485  0012DE  EF73  F009         	goto	u1930
  1486  0012E2                     u1931:
  1487  0012E2  EF83  F009         	goto	l2192
  1488  0012E6                     u1930:
  1489  0012E6                     
  1490                           ;C:\Program Files (x86)\Microchip\xc8\v2.10\pic\sources\c99\common\doprnt.c: 283:       
      +                            n = -n;
  1491  0012E6  1E3D               	comf	(dtoa@n+7)^0,f,c
  1492  0012E8  1E3C               	comf	(dtoa@n+6)^0,f,c
  1493  0012EA  1E3B               	comf	(dtoa@n+5)^0,f,c
  1494  0012EC  1E3A               	comf	(dtoa@n+4)^0,f,c
  1495  0012EE  1E39               	comf	(dtoa@n+3)^0,f,c
  1496  0012F0  1E38               	comf	(dtoa@n+2)^0,f,c
  1497  0012F2  1E37               	comf	(dtoa@n+1)^0,f,c
  1498  0012F4  6C36               	negf	dtoa@n^0,c
  1499  0012F6  0E00               	movlw	0
  1500  0012F8  2237               	addwfc	(dtoa@n+1)^0,f,c
  1501  0012FA  2238               	addwfc	(dtoa@n+2)^0,f,c
  1502  0012FC  2239               	addwfc	(dtoa@n+3)^0,f,c
  1503  0012FE  223A               	addwfc	(dtoa@n+4)^0,f,c
  1504  001300  223B               	addwfc	(dtoa@n+5)^0,f,c
  1505  001302  223C               	addwfc	(dtoa@n+6)^0,f,c
  1506  001304  223D               	addwfc	(dtoa@n+7)^0,f,c
  1507  001306                     l2192:
  1508                           
  1509                           ;C:\Program Files (x86)\Microchip\xc8\v2.10\pic\sources\c99\common\doprnt.c: 287:     if
      +                           (!(prec < 0)) {
  1510  001306  0100               	movlb	0	; () banked
  1511  001308  BFCF               	btfsc	(_prec+1)& (0+255),7,b
  1512  00130A  EF89  F009         	goto	u1941
  1513  00130E  EF8B  F009         	goto	u1940
  1514  001312                     u1941:
  1515  001312  EF8C  F009         	goto	l2196
  1516  001316                     u1940:
  1517  001316                     
  1518                           ; BSR set to: 0
  1519                           ;C:\Program Files (x86)\Microchip\xc8\v2.10\pic\sources\c99\common\doprnt.c: 288:       
      +                            flags &= ~(1 << 1);
  1520  001316  925E               	bcf	_flags^0,1,c
  1521  001318                     l2196:
  1522                           
  1523                           ; BSR set to: 0
  1524                           ;C:\Program Files (x86)\Microchip\xc8\v2.10\pic\sources\c99\common\doprnt.c: 290:     p 
      +                          = (0 < prec) ? prec : 1;
  1525  001318  BFCF               	btfsc	(_prec+1)& (0+255),7,b
  1526  00131A  EF99  F009         	goto	u1950
  1527  00131E  51CF               	movf	(_prec+1)& (0+255),w,b
  1528  001320  E106               	bnz	u1951
  1529  001322  05CE               	decf	_prec& (0+255),w,b
  1530  001324  B0D8               	btfsc	status,0,c
  1531  001326  EF97  F009         	goto	u1951
  1532  00132A  EF99  F009         	goto	u1950
  1533  00132E                     u1951:
  1534  00132E  EF9F  F009         	goto	l243
  1535  001332                     u1950:
  1536  001332                     
  1537                           ; BSR set to: 0
  1538  001332  0E00               	movlw	0
  1539  001334  6E31               	movwf	(dtoa@p+1)^0,c
  1540  001336  0E01               	movlw	1
  1541  001338  6E30               	movwf	dtoa@p^0,c
  1542  00133A  EFA3  F009         	goto	l245
  1543  00133E                     l243:
  1544                           
  1545                           ; BSR set to: 0
  1546  00133E  C0CE  F030         	movff	_prec,dtoa@p
  1547  001342  C0CF  F031         	movff	_prec+1,dtoa@p+1
  1548  001346                     l245:
  1549                           
  1550                           ; BSR set to: 0
  1551                           ;C:\Program Files (x86)\Microchip\xc8\v2.10\pic\sources\c99\common\doprnt.c: 291:     w 
      +                          = width;
  1552  001346  C0CC  F032         	movff	_width,dtoa@w
  1553  00134A  C0CD  F033         	movff	_width+1,dtoa@w+1
  1554  00134E                     
  1555                           ; BSR set to: 0
  1556                           ;C:\Program Files (x86)\Microchip\xc8\v2.10\pic\sources\c99\common\doprnt.c: 292:     if
      +                           (s || (flags & (1 << 2))) {
  1557  00134E  5034               	movf	dtoa@s^0,w,c
  1558  001350  1035               	iorwf	(dtoa@s+1)^0,w,c
  1559  001352  A4D8               	btfss	status,2,c
  1560  001354  EFAE  F009         	goto	u1961
  1561  001358  EFB0  F009         	goto	u1960
  1562  00135C                     u1961:
  1563  00135C  EFB7  F009         	goto	l2204
  1564  001360                     u1960:
  1565  001360                     
  1566                           ; BSR set to: 0
  1567  001360  A45E               	btfss	_flags^0,2,c
  1568  001362  EFB5  F009         	goto	u1971
  1569  001366  EFB7  F009         	goto	u1970
  1570  00136A                     u1971:
  1571  00136A  EFBA  F009         	goto	l2206
  1572  00136E                     u1970:
  1573  00136E                     l2204:
  1574                           
  1575                           ; BSR set to: 0
  1576                           ;C:\Program Files (x86)\Microchip\xc8\v2.10\pic\sources\c99\common\doprnt.c: 293:       
      +                            --w;
  1577  00136E  0632               	decf	dtoa@w^0,f,c
  1578  001370  A0D8               	btfss	status,0,c
  1579  001372  0633               	decf	(dtoa@w+1)^0,f,c
  1580  001374                     l2206:
  1581                           
  1582                           ; BSR set to: 0
  1583                           ;C:\Program Files (x86)\Microchip\xc8\v2.10\pic\sources\c99\common\doprnt.c: 297:     i 
      +                          = sizeof(dbuf) - 1;
  1584  001374  0E00               	movlw	0
  1585  001376  6E3F               	movwf	(dtoa@i+1)^0,c
  1586  001378  0E1F               	movlw	31
  1587  00137A  6E3E               	movwf	dtoa@i^0,c
  1588  00137C                     
  1589                           ; BSR set to: 0
  1590                           ;C:\Program Files (x86)\Microchip\xc8\v2.10\pic\sources\c99\common\doprnt.c: 298:     db
      +                          uf[i] = '\0';
  1591  00137C  0E00               	movlw	0
  1592  00137E  6FFB               	movwf	(_dbuf+31)& (0+255),b
  1593                           
  1594                           ;C:\Program Files (x86)\Microchip\xc8\v2.10\pic\sources\c99\common\doprnt.c: 299:     wh
      +                          ile (!(i < 1) && (n || (0 < p) || ((0 < w) && (flags & (1 << 1))))) {
  1595  001380  EF3E  F00A         	goto	l2220
  1596  001384                     l2210:
  1597                           
  1598                           ;C:\Program Files (x86)\Microchip\xc8\v2.10\pic\sources\c99\common\doprnt.c: 300:       
      +                            --i;
  1599  001384  063E               	decf	dtoa@i^0,f,c
  1600  001386  A0D8               	btfss	status,0,c
  1601  001388  063F               	decf	(dtoa@i+1)^0,f,c
  1602  00138A                     
  1603                           ;C:\Program Files (x86)\Microchip\xc8\v2.10\pic\sources\c99\common\doprnt.c: 301:       
      +                            dbuf[i] = '0' + abs(n % 10);
  1604  00138A  0EDC               	movlw	low _dbuf
  1605  00138C  243E               	addwf	dtoa@i^0,w,c
  1606  00138E  6ED9               	movwf	fsr2l,c
  1607  001390  0E00               	movlw	high _dbuf
  1608  001392  203F               	addwfc	(dtoa@i+1)^0,w,c
  1609  001394  6EDA               	movwf	fsr2h,c
  1610  001396  C036  F001         	movff	dtoa@n,___aomod@dividend
  1611  00139A  C037  F002         	movff	dtoa@n+1,___aomod@dividend+1
  1612  00139E  C038  F003         	movff	dtoa@n+2,___aomod@dividend+2
  1613  0013A2  C039  F004         	movff	dtoa@n+3,___aomod@dividend+3
  1614  0013A6  C03A  F005         	movff	dtoa@n+4,___aomod@dividend+4
  1615  0013AA  C03B  F006         	movff	dtoa@n+5,___aomod@dividend+5
  1616  0013AE  C03C  F007         	movff	dtoa@n+6,___aomod@dividend+6
  1617  0013B2  C03D  F008         	movff	dtoa@n+7,___aomod@dividend+7
  1618  0013B6  0E0A               	movlw	10
  1619  0013B8  6E09               	movwf	___aomod@divisor^0,c
  1620  0013BA  0E00               	movlw	0
  1621  0013BC  6E0A               	movwf	(___aomod@divisor+1)^0,c
  1622  0013BE  0E00               	movlw	0
  1623  0013C0  6E0B               	movwf	(___aomod@divisor+2)^0,c
  1624  0013C2  0E00               	movlw	0
  1625  0013C4  6E0C               	movwf	(___aomod@divisor+3)^0,c
  1626  0013C6  0E00               	movlw	0
  1627  0013C8  6E0D               	movwf	(___aomod@divisor+4)^0,c
  1628  0013CA  0E00               	movlw	0
  1629  0013CC  6E0E               	movwf	(___aomod@divisor+5)^0,c
  1630  0013CE  0E00               	movlw	0
  1631  0013D0  6E0F               	movwf	(___aomod@divisor+6)^0,c
  1632  0013D2  0E00               	movlw	0
  1633  0013D4  6E10               	movwf	(___aomod@divisor+7)^0,c
  1634  0013D6  EC27  F00E         	call	___aomod	;wreg free
  1635  0013DA  C001  F026         	movff	?___aomod,??_dtoa
  1636  0013DE  C002  F027         	movff	?___aomod+1,??_dtoa+1
  1637  0013E2  C003  F028         	movff	?___aomod+2,??_dtoa+2
  1638  0013E6  C004  F029         	movff	?___aomod+3,??_dtoa+3
  1639  0013EA  C005  F02A         	movff	?___aomod+4,??_dtoa+4
  1640  0013EE  C006  F02B         	movff	?___aomod+5,??_dtoa+5
  1641  0013F2  C007  F02C         	movff	?___aomod+6,??_dtoa+6
  1642  0013F6  C008  F02D         	movff	?___aomod+7,??_dtoa+7
  1643  0013FA  C026  F013         	movff	??_dtoa,abs@a
  1644  0013FE  C028  F014         	movff	??_dtoa+2,abs@a+1
  1645  001402  ECA2  F012         	call	_abs	;wreg free
  1646  001406  5013               	movf	?_abs^0,w,c
  1647  001408  0F30               	addlw	48
  1648  00140A  6EDF               	movwf	indf2,c
  1649  00140C                     
  1650                           ;C:\Program Files (x86)\Microchip\xc8\v2.10\pic\sources\c99\common\doprnt.c: 302:       
      +                            --p;
  1651  00140C  0630               	decf	dtoa@p^0,f,c
  1652  00140E  A0D8               	btfss	status,0,c
  1653  001410  0631               	decf	(dtoa@p+1)^0,f,c
  1654  001412                     
  1655                           ;C:\Program Files (x86)\Microchip\xc8\v2.10\pic\sources\c99\common\doprnt.c: 303:       
      +                            --w;
  1656  001412  0632               	decf	dtoa@w^0,f,c
  1657  001414  A0D8               	btfss	status,0,c
  1658  001416  0633               	decf	(dtoa@w+1)^0,f,c
  1659  001418                     
  1660                           ;C:\Program Files (x86)\Microchip\xc8\v2.10\pic\sources\c99\common\doprnt.c: 304:       
      +                            n = n / 10;
  1661  001418  C036  F001         	movff	dtoa@n,___aodiv@dividend
  1662  00141C  C037  F002         	movff	dtoa@n+1,___aodiv@dividend+1
  1663  001420  C038  F003         	movff	dtoa@n+2,___aodiv@dividend+2
  1664  001424  C039  F004         	movff	dtoa@n+3,___aodiv@dividend+3
  1665  001428  C03A  F005         	movff	dtoa@n+4,___aodiv@dividend+4
  1666  00142C  C03B  F006         	movff	dtoa@n+5,___aodiv@dividend+5
  1667  001430  C03C  F007         	movff	dtoa@n+6,___aodiv@dividend+6
  1668  001434  C03D  F008         	movff	dtoa@n+7,___aodiv@dividend+7
  1669  001438  0E0A               	movlw	10
  1670  00143A  6E09               	movwf	___aodiv@divisor^0,c
  1671  00143C  0E00               	movlw	0
  1672  00143E  6E0A               	movwf	(___aodiv@divisor+1)^0,c
  1673  001440  0E00               	movlw	0
  1674  001442  6E0B               	movwf	(___aodiv@divisor+2)^0,c
  1675  001444  0E00               	movlw	0
  1676  001446  6E0C               	movwf	(___aodiv@divisor+3)^0,c
  1677  001448  0E00               	movlw	0
  1678  00144A  6E0D               	movwf	(___aodiv@divisor+4)^0,c
  1679  00144C  0E00               	movlw	0
  1680  00144E  6E0E               	movwf	(___aodiv@divisor+5)^0,c
  1681  001450  0E00               	movlw	0
  1682  001452  6E0F               	movwf	(___aodiv@divisor+6)^0,c
  1683  001454  0E00               	movlw	0
  1684  001456  6E10               	movwf	(___aodiv@divisor+7)^0,c
  1685  001458  EC63  F00D         	call	___aodiv	;wreg free
  1686  00145C  C001  F036         	movff	?___aodiv,dtoa@n
  1687  001460  C002  F037         	movff	?___aodiv+1,dtoa@n+1
  1688  001464  C003  F038         	movff	?___aodiv+2,dtoa@n+2
  1689  001468  C004  F039         	movff	?___aodiv+3,dtoa@n+3
  1690  00146C  C005  F03A         	movff	?___aodiv+4,dtoa@n+4
  1691  001470  C006  F03B         	movff	?___aodiv+5,dtoa@n+5
  1692  001474  C007  F03C         	movff	?___aodiv+6,dtoa@n+6
  1693  001478  C008  F03D         	movff	?___aodiv+7,dtoa@n+7
  1694  00147C                     l2220:
  1695                           
  1696                           ;C:\Program Files (x86)\Microchip\xc8\v2.10\pic\sources\c99\common\doprnt.c: 299:     wh
      +                          ile (!(i < 1) && (n || (0 < p) || ((0 < w) && (flags & (1 << 1))))) {
  1697  00147C  BE3F               	btfsc	(dtoa@i+1)^0,7,c
  1698  00147E  EF49  F00A         	goto	u1981
  1699  001482  503F               	movf	(dtoa@i+1)^0,w,c
  1700  001484  E108               	bnz	u1980
  1701  001486  043E               	decf	dtoa@i^0,w,c
  1702  001488  A0D8               	btfss	status,0,c
  1703  00148A  EF49  F00A         	goto	u1981
  1704  00148E  EF4B  F00A         	goto	u1980
  1705  001492                     u1981:
  1706  001492  EF7B  F00A         	goto	l2230
  1707  001496                     u1980:
  1708  001496  5036               	movf	dtoa@n^0,w,c
  1709  001498  1037               	iorwf	(dtoa@n+1)^0,w,c
  1710  00149A  1038               	iorwf	(dtoa@n+2)^0,w,c
  1711  00149C  1039               	iorwf	(dtoa@n+3)^0,w,c
  1712  00149E  103A               	iorwf	(dtoa@n+4)^0,w,c
  1713  0014A0  103B               	iorwf	(dtoa@n+5)^0,w,c
  1714  0014A2  103C               	iorwf	(dtoa@n+6)^0,w,c
  1715  0014A4  103D               	iorwf	(dtoa@n+7)^0,w,c
  1716  0014A6  A4D8               	btfss	status,2,c
  1717  0014A8  EF58  F00A         	goto	u1991
  1718  0014AC  EF5A  F00A         	goto	u1990
  1719  0014B0                     u1991:
  1720  0014B0  EFC2  F009         	goto	l2210
  1721  0014B4                     u1990:
  1722  0014B4  BE31               	btfsc	(dtoa@p+1)^0,7,c
  1723  0014B6  EF67  F00A         	goto	u2000
  1724  0014BA  5031               	movf	(dtoa@p+1)^0,w,c
  1725  0014BC  E106               	bnz	u2001
  1726  0014BE  0430               	decf	dtoa@p^0,w,c
  1727  0014C0  B0D8               	btfsc	status,0,c
  1728  0014C2  EF65  F00A         	goto	u2001
  1729  0014C6  EF67  F00A         	goto	u2000
  1730  0014CA                     u2001:
  1731  0014CA  EFC2  F009         	goto	l2210
  1732  0014CE                     u2000:
  1733  0014CE  BE33               	btfsc	(dtoa@w+1)^0,7,c
  1734  0014D0  EF72  F00A         	goto	u2011
  1735  0014D4  5033               	movf	(dtoa@w+1)^0,w,c
  1736  0014D6  E108               	bnz	u2010
  1737  0014D8  0432               	decf	dtoa@w^0,w,c
  1738  0014DA  A0D8               	btfss	status,0,c
  1739  0014DC  EF72  F00A         	goto	u2011
  1740  0014E0  EF74  F00A         	goto	u2010
  1741  0014E4                     u2011:
  1742  0014E4  EF7B  F00A         	goto	l2230
  1743  0014E8                     u2010:
  1744  0014E8  B25E               	btfsc	_flags^0,1,c
  1745  0014EA  EF79  F00A         	goto	u2021
  1746  0014EE  EF7B  F00A         	goto	u2020
  1747  0014F2                     u2021:
  1748  0014F2  EFC2  F009         	goto	l2210
  1749  0014F6                     u2020:
  1750  0014F6                     l2230:
  1751                           
  1752                           ;C:\Program Files (x86)\Microchip\xc8\v2.10\pic\sources\c99\common\doprnt.c: 308:     if
      +                           (s || (flags & (1 << 2))) {
  1753  0014F6  5034               	movf	dtoa@s^0,w,c
  1754  0014F8  1035               	iorwf	(dtoa@s+1)^0,w,c
  1755  0014FA  A4D8               	btfss	status,2,c
  1756  0014FC  EF82  F00A         	goto	u2031
  1757  001500  EF84  F00A         	goto	u2030
  1758  001504                     u2031:
  1759  001504  EF8B  F00A         	goto	l2234
  1760  001508                     u2030:
  1761  001508  A45E               	btfss	_flags^0,2,c
  1762  00150A  EF89  F00A         	goto	u2041
  1763  00150E  EF8B  F00A         	goto	u2040
  1764  001512                     u2041:
  1765  001512  EFA9  F00A         	goto	l2244
  1766  001516                     u2040:
  1767  001516                     l2234:
  1768                           
  1769                           ;C:\Program Files (x86)\Microchip\xc8\v2.10\pic\sources\c99\common\doprnt.c: 309:       
      +                            --i;
  1770  001516  063E               	decf	dtoa@i^0,f,c
  1771  001518  A0D8               	btfss	status,0,c
  1772  00151A  063F               	decf	(dtoa@i+1)^0,f,c
  1773  00151C                     
  1774                           ;C:\Program Files (x86)\Microchip\xc8\v2.10\pic\sources\c99\common\doprnt.c: 310:       
      +                            dbuf[i] = s ? '-' : '+';
  1775  00151C  5034               	movf	dtoa@s^0,w,c
  1776  00151E  1035               	iorwf	(dtoa@s+1)^0,w,c
  1777  001520  A4D8               	btfss	status,2,c
  1778  001522  EF95  F00A         	goto	u2051
  1779  001526  EF97  F00A         	goto	u2050
  1780  00152A                     u2051:
  1781  00152A  EF9D  F00A         	goto	l2240
  1782  00152E                     u2050:
  1783  00152E  0E00               	movlw	0
  1784  001530  6E2F               	movwf	(_dtoa$335+1)^0,c
  1785  001532  0E2B               	movlw	43
  1786  001534  6E2E               	movwf	_dtoa$335^0,c
  1787  001536  EFA1  F00A         	goto	l2242
  1788  00153A                     l2240:
  1789  00153A  0E00               	movlw	0
  1790  00153C  6E2F               	movwf	(_dtoa$335+1)^0,c
  1791  00153E  0E2D               	movlw	45
  1792  001540  6E2E               	movwf	_dtoa$335^0,c
  1793  001542                     l2242:
  1794  001542  0EDC               	movlw	low _dbuf
  1795  001544  243E               	addwf	dtoa@i^0,w,c
  1796  001546  6ED9               	movwf	fsr2l,c
  1797  001548  0E00               	movlw	high _dbuf
  1798  00154A  203F               	addwfc	(dtoa@i+1)^0,w,c
  1799  00154C  6EDA               	movwf	fsr2h,c
  1800  00154E  C02E  FFDF         	movff	_dtoa$335,indf2
  1801  001552                     l2244:
  1802                           
  1803                           ;C:\Program Files (x86)\Microchip\xc8\v2.10\pic\sources\c99\common\doprnt.c: 314:     re
      +                          turn pad(fp, &dbuf[i], w);
  1804  001552  C01C  F011         	movff	dtoa@fp,pad@fp
  1805  001556  C01D  F012         	movff	dtoa@fp+1,pad@fp+1
  1806  00155A  0EDC               	movlw	low _dbuf
  1807  00155C  243E               	addwf	dtoa@i^0,w,c
  1808  00155E  6E13               	movwf	pad@buf^0,c
  1809  001560  0E00               	movlw	high _dbuf
  1810  001562  203F               	addwfc	(dtoa@i+1)^0,w,c
  1811  001564  6E14               	movwf	(pad@buf+1)^0,c
  1812  001566  C032  F015         	movff	dtoa@w,pad@p
  1813  00156A  C033  F016         	movff	dtoa@w+1,pad@p+1
  1814  00156E  EC25  F011         	call	_pad	;wreg free
  1815  001572  C011  F01C         	movff	?_pad,?_dtoa
  1816  001576  C012  F01D         	movff	?_pad+1,?_dtoa+1
  1817  00157A  0012               	return		;funcret
  1818  00157C                     __end_of_dtoa:
  1819                           	opt callstack 0
  1820                           
  1821 ;; *************** function _pad *****************
  1822 ;; Defined at:
  1823 ;;		line 72 in file "C:\Program Files (x86)\Microchip\xc8\v2.10\pic\sources\c99\common\doprnt.c"
  1824 ;; Parameters:    Size  Location     Type
  1825 ;;  fp              2   16[COMRAM] PTR struct _IO_FILE
  1826 ;;		 -> sprintf@f(6), 
  1827 ;;  buf             2   18[COMRAM] PTR unsigned char 
  1828 ;;		 -> dbuf(32), 
  1829 ;;  p               2   20[COMRAM] int 
  1830 ;; Auto vars:     Size  Location     Type
  1831 ;;  w               2   25[COMRAM] int 
  1832 ;;  i               2   23[COMRAM] int 
  1833 ;; Return value:  Size  Location     Type
  1834 ;;                  2   16[COMRAM] int 
  1835 ;; Registers used:
  1836 ;;		wreg, fsr1l, fsr1h, fsr2l, fsr2h, status,2, status,0, cstack
  1837 ;; Tracked objects:
  1838 ;;		On entry : 0/0
  1839 ;;		On exit  : 0/0
  1840 ;;		Unchanged: 0/0
  1841 ;; Data sizes:     COMRAM   BANK0   BANK1   BANK2   BANK3   BANK4   BANK5
  1842 ;;      Params:         6       0       0       0       0       0       0
  1843 ;;      Locals:         4       0       0       0       0       0       0
  1844 ;;      Temps:          1       0       0       0       0       0       0
  1845 ;;      Totals:        11       0       0       0       0       0       0
  1846 ;;Total ram usage:       11 bytes
  1847 ;; Hardware stack levels used:    1
  1848 ;; Hardware stack levels required when called:    3
  1849 ;; This function calls:
  1850 ;;		_fputc
  1851 ;;		_fputs
  1852 ;;		_strlen
  1853 ;; This function is called by:
  1854 ;;		_dtoa
  1855 ;; This function uses a non-reentrant model
  1856 ;;
  1857                           
  1858                           	psect	text5
  1859  00224A                     __ptext5:
  1860                           	opt callstack 0
  1861  00224A                     _pad:
  1862                           	opt callstack 23
  1863  00224A                     
  1864                           ;C:\Program Files (x86)\Microchip\xc8\v2.10\pic\sources\c99\common\doprnt.c: 72: static 
      +                          int pad(FILE *fp, char *buf, int p);C:\Program Files (x86)\Microchip\xc8\v2.10\pic\sourc
      +                          es\c99\common\doprnt.c: 73: {;C:\Program Files (x86)\Microchip\xc8\v2.10\pic\sources\c99
      +                          \common\doprnt.c: 74:     int i, w;;C:\Program Files (x86)\Microchip\xc8\v2.10\pic\sourc
      +                          es\c99\common\doprnt.c: 77:     if (flags & (1 << 0)) {
  1865  00224A  A05E               	btfss	_flags^0,0,c
  1866  00224C  EF2A  F011         	goto	u1711
  1867  002250  EF2C  F011         	goto	u1710
  1868  002254                     u1711:
  1869  002254  EF36  F011         	goto	l2068
  1870  002258                     u1710:
  1871  002258                     
  1872                           ;C:\Program Files (x86)\Microchip\xc8\v2.10\pic\sources\c99\common\doprnt.c: 78:        
      +                           fputs((const char *)buf, fp);
  1873  002258  C013  F00A         	movff	pad@buf,fputs@s
  1874  00225C  C014  F00B         	movff	pad@buf+1,fputs@s+1
  1875  002260  C011  F00C         	movff	pad@fp,fputs@fp
  1876  002264  C012  F00D         	movff	pad@fp+1,fputs@fp+1
  1877  002268  EC80  F012         	call	_fputs	;wreg free
  1878  00226C                     l2068:
  1879                           
  1880                           ;C:\Program Files (x86)\Microchip\xc8\v2.10\pic\sources\c99\common\doprnt.c: 82:     w =
      +                           (p < 0) ? 0 : p;
  1881  00226C  BE16               	btfsc	(pad@p+1)^0,7,c
  1882  00226E  EF3B  F011         	goto	u1721
  1883  002272  EF3D  F011         	goto	u1720
  1884  002276                     u1721:
  1885  002276  EF43  F011         	goto	l2072
  1886  00227A                     u1720:
  1887  00227A  C015  F01A         	movff	pad@p,pad@w
  1888  00227E  C016  F01B         	movff	pad@p+1,pad@w+1
  1889  002282  EF47  F011         	goto	l232
  1890  002286                     l2072:
  1891  002286  0E00               	movlw	0
  1892  002288  6E1B               	movwf	(pad@w+1)^0,c
  1893  00228A  0E00               	movlw	0
  1894  00228C  6E1A               	movwf	pad@w^0,c
  1895  00228E                     l232:
  1896                           
  1897                           ;C:\Program Files (x86)\Microchip\xc8\v2.10\pic\sources\c99\common\doprnt.c: 83:     i =
      +                           0;
  1898  00228E  0E00               	movlw	0
  1899  002290  6E19               	movwf	(pad@i+1)^0,c
  1900  002292  0E00               	movlw	0
  1901  002294  6E18               	movwf	pad@i^0,c
  1902                           
  1903                           ;C:\Program Files (x86)\Microchip\xc8\v2.10\pic\sources\c99\common\doprnt.c: 84:     whi
      +                          le (i < w) {
  1904  002296  EF59  F011         	goto	l2078
  1905  00229A                     l2074:
  1906                           
  1907                           ;C:\Program Files (x86)\Microchip\xc8\v2.10\pic\sources\c99\common\doprnt.c: 85:        
      +                           fputc(' ', fp);
  1908  00229A  0E00               	movlw	0
  1909  00229C  6E02               	movwf	(fputc@c+1)^0,c
  1910  00229E  0E20               	movlw	32
  1911  0022A0  6E01               	movwf	fputc@c^0,c
  1912  0022A2  C011  F003         	movff	pad@fp,fputc@fp
  1913  0022A6  C012  F004         	movff	pad@fp+1,fputc@fp+1
  1914  0022AA  ECC0  F010         	call	_fputc	;wreg free
  1915  0022AE                     
  1916                           ;C:\Program Files (x86)\Microchip\xc8\v2.10\pic\sources\c99\common\doprnt.c: 86:        
      +                           ++i;
  1917  0022AE  4A18               	infsnz	pad@i^0,f,c
  1918  0022B0  2A19               	incf	(pad@i+1)^0,f,c
  1919  0022B2                     l2078:
  1920                           
  1921                           ;C:\Program Files (x86)\Microchip\xc8\v2.10\pic\sources\c99\common\doprnt.c: 84:     whi
      +                          le (i < w) {
  1922  0022B2  501A               	movf	pad@w^0,w,c
  1923  0022B4  5C18               	subwf	pad@i^0,w,c
  1924  0022B6  5019               	movf	(pad@i+1)^0,w,c
  1925  0022B8  0A80               	xorlw	128
  1926  0022BA  6E17               	movwf	??_pad^0,c
  1927  0022BC  501B               	movf	(pad@w+1)^0,w,c
  1928  0022BE  0A80               	xorlw	128
  1929  0022C0  5817               	subwfb	??_pad^0,w,c
  1930  0022C2  A0D8               	btfss	status,0,c
  1931  0022C4  EF66  F011         	goto	u1731
  1932  0022C8  EF68  F011         	goto	u1730
  1933  0022CC                     u1731:
  1934  0022CC  EF4D  F011         	goto	l2074
  1935  0022D0                     u1730:
  1936  0022D0                     
  1937                           ;C:\Program Files (x86)\Microchip\xc8\v2.10\pic\sources\c99\common\doprnt.c: 90:     if 
      +                          (!(flags & (1 << 0))) {
  1938  0022D0  B05E               	btfsc	_flags^0,0,c
  1939  0022D2  EF6D  F011         	goto	u1741
  1940  0022D6  EF6F  F011         	goto	u1740
  1941  0022DA                     u1741:
  1942  0022DA  EF79  F011         	goto	l2082
  1943  0022DE                     u1740:
  1944  0022DE                     
  1945                           ;C:\Program Files (x86)\Microchip\xc8\v2.10\pic\sources\c99\common\doprnt.c: 91:        
      +                           fputs((const char *)buf, fp);
  1946  0022DE  C013  F00A         	movff	pad@buf,fputs@s
  1947  0022E2  C014  F00B         	movff	pad@buf+1,fputs@s+1
  1948  0022E6  C011  F00C         	movff	pad@fp,fputs@fp
  1949  0022EA  C012  F00D         	movff	pad@fp+1,fputs@fp+1
  1950  0022EE  EC80  F012         	call	_fputs	;wreg free
  1951  0022F2                     l2082:
  1952                           
  1953                           ;C:\Program Files (x86)\Microchip\xc8\v2.10\pic\sources\c99\common\doprnt.c: 94:     ret
      +                          urn strlen(buf) + w;
  1954  0022F2  C013  F001         	movff	pad@buf,strlen@s
  1955  0022F6  C014  F002         	movff	pad@buf+1,strlen@s+1
  1956  0022FA  ECE2  F012         	call	_strlen	;wreg free
  1957  0022FE  501A               	movf	pad@w^0,w,c
  1958  002300  2401               	addwf	?_strlen^0,w,c
  1959  002302  6E11               	movwf	?_pad^0,c
  1960  002304  501B               	movf	(pad@w+1)^0,w,c
  1961  002306  2002               	addwfc	(?_strlen+1)^0,w,c
  1962  002308  6E12               	movwf	(?_pad+1)^0,c
  1963  00230A  0012               	return		;funcret
  1964  00230C                     __end_of_pad:
  1965                           	opt callstack 0
  1966                           
  1967 ;; *************** function _strlen *****************
  1968 ;; Defined at:
  1969 ;;		line 5 in file "C:\Program Files (x86)\Microchip\xc8\v2.10\pic\sources\c99\common\strlen.c"
  1970 ;; Parameters:    Size  Location     Type
  1971 ;;  s               2    0[COMRAM] PTR const unsigned char 
  1972 ;;		 -> dbuf(32), 
  1973 ;; Auto vars:     Size  Location     Type
  1974 ;;  a               2    2[COMRAM] PTR const unsigned char 
  1975 ;;		 -> dbuf(32), 
  1976 ;; Return value:  Size  Location     Type
  1977 ;;                  2    0[COMRAM] unsigned int 
  1978 ;; Registers used:
  1979 ;;		wreg, fsr2l, fsr2h, status,2, status,0
  1980 ;; Tracked objects:
  1981 ;;		On entry : 0/0
  1982 ;;		On exit  : 0/0
  1983 ;;		Unchanged: 0/0
  1984 ;; Data sizes:     COMRAM   BANK0   BANK1   BANK2   BANK3   BANK4   BANK5
  1985 ;;      Params:         2       0       0       0       0       0       0
  1986 ;;      Locals:         2       0       0       0       0       0       0
  1987 ;;      Temps:          0       0       0       0       0       0       0
  1988 ;;      Totals:         4       0       0       0       0       0       0
  1989 ;;Total ram usage:        4 bytes
  1990 ;; Hardware stack levels used:    1
  1991 ;; This function calls:
  1992 ;;		Nothing
  1993 ;; This function is called by:
  1994 ;;		_pad
  1995 ;; This function uses a non-reentrant model
  1996 ;;
  1997                           
  1998                           	psect	text6
  1999  0025C4                     __ptext6:
  2000                           	opt callstack 0
  2001  0025C4                     _strlen:
  2002                           	opt callstack 25
  2003  0025C4  C001  F003         	movff	strlen@s,strlen@a
  2004  0025C8  C002  F004         	movff	strlen@s+1,strlen@a+1
  2005  0025CC  EFEA  F012         	goto	l2058
  2006  0025D0                     l2056:
  2007  0025D0  4A01               	infsnz	strlen@s^0,f,c
  2008  0025D2  2A02               	incf	(strlen@s+1)^0,f,c
  2009  0025D4                     l2058:
  2010  0025D4  C001  FFD9         	movff	strlen@s,fsr2l
  2011  0025D8  C002  FFDA         	movff	strlen@s+1,fsr2h
  2012  0025DC  50DF               	movf	indf2,w,c
  2013  0025DE  A4D8               	btfss	status,2,c
  2014  0025E0  EFF4  F012         	goto	u1701
  2015  0025E4  EFF6  F012         	goto	u1700
  2016  0025E8                     u1701:
  2017  0025E8  EFE8  F012         	goto	l2056
  2018  0025EC                     u1700:
  2019  0025EC  5003               	movf	strlen@a^0,w,c
  2020  0025EE  5C01               	subwf	strlen@s^0,w,c
  2021  0025F0  6E01               	movwf	?_strlen^0,c
  2022  0025F2  5004               	movf	(strlen@a+1)^0,w,c
  2023  0025F4  5802               	subwfb	(strlen@s+1)^0,w,c
  2024  0025F6  6E02               	movwf	(?_strlen+1)^0,c
  2025  0025F8  0012               	return		;funcret
  2026  0025FA                     __end_of_strlen:
  2027                           	opt callstack 0
  2028                           
  2029 ;; *************** function _fputs *****************
  2030 ;; Defined at:
  2031 ;;		line 8 in file "C:\Program Files (x86)\Microchip\xc8\v2.10\pic\sources\c99\common\nf_fputs.c"
  2032 ;; Parameters:    Size  Location     Type
  2033 ;;  s               2    9[COMRAM] PTR const unsigned char 
  2034 ;;		 -> dbuf(32), 
  2035 ;;  fp              2   11[COMRAM] PTR struct _IO_FILE
  2036 ;;		 -> sprintf@f(6), 
  2037 ;; Auto vars:     Size  Location     Type
  2038 ;;  i               2   14[COMRAM] int 
  2039 ;;  c               1   13[COMRAM] unsigned char 
  2040 ;; Return value:  Size  Location     Type
  2041 ;;                  2    9[COMRAM] int 
  2042 ;; Registers used:
  2043 ;;		wreg, fsr1l, fsr1h, fsr2l, fsr2h, status,2, status,0, cstack
  2044 ;; Tracked objects:
  2045 ;;		On entry : 0/0
  2046 ;;		On exit  : 0/0
  2047 ;;		Unchanged: 0/0
  2048 ;; Data sizes:     COMRAM   BANK0   BANK1   BANK2   BANK3   BANK4   BANK5
  2049 ;;      Params:         4       0       0       0       0       0       0
  2050 ;;      Locals:         3       0       0       0       0       0       0
  2051 ;;      Temps:          0       0       0       0       0       0       0
  2052 ;;      Totals:         7       0       0       0       0       0       0
  2053 ;;Total ram usage:        7 bytes
  2054 ;; Hardware stack levels used:    1
  2055 ;; Hardware stack levels required when called:    2
  2056 ;; This function calls:
  2057 ;;		_fputc
  2058 ;; This function is called by:
  2059 ;;		_pad
  2060 ;; This function uses a non-reentrant model
  2061 ;;
  2062                           
  2063                           	psect	text7
  2064  002500                     __ptext7:
  2065                           	opt callstack 0
  2066  002500                     _fputs:
  2067                           	opt callstack 23
  2068  002500  0E00               	movlw	0
  2069  002502  6E10               	movwf	(fputs@i+1)^0,c
  2070  002504  0E00               	movlw	0
  2071  002506  6E0F               	movwf	fputs@i^0,c
  2072  002508  EF91  F012         	goto	l2052
  2073  00250C                     l2048:
  2074  00250C  C00E  F001         	movff	fputs@c,fputc@c
  2075  002510  6A02               	clrf	(fputc@c+1)^0,c
  2076  002512  C00C  F003         	movff	fputs@fp,fputc@fp
  2077  002516  C00D  F004         	movff	fputs@fp+1,fputc@fp+1
  2078  00251A  ECC0  F010         	call	_fputc	;wreg free
  2079  00251E  4A0F               	infsnz	fputs@i^0,f,c
  2080  002520  2A10               	incf	(fputs@i+1)^0,f,c
  2081  002522                     l2052:
  2082  002522  500F               	movf	fputs@i^0,w,c
  2083  002524  240A               	addwf	fputs@s^0,w,c
  2084  002526  6ED9               	movwf	fsr2l,c
  2085  002528  5010               	movf	(fputs@i+1)^0,w,c
  2086  00252A  200B               	addwfc	(fputs@s+1)^0,w,c
  2087  00252C  6EDA               	movwf	fsr2h,c
  2088  00252E  50DF               	movf	indf2,w,c
  2089  002530  6E0E               	movwf	fputs@c^0,c
  2090  002532  500E               	movf	fputs@c^0,w,c
  2091  002534  A4D8               	btfss	status,2,c
  2092  002536  EF9F  F012         	goto	u1691
  2093  00253A  EFA1  F012         	goto	u1690
  2094  00253E                     u1691:
  2095  00253E  EF86  F012         	goto	l2048
  2096  002542                     u1690:
  2097  002542  0012               	return		;funcret
  2098  002544                     __end_of_fputs:
  2099                           	opt callstack 0
  2100                           
  2101 ;; *************** function _fputc *****************
  2102 ;; Defined at:
  2103 ;;		line 8 in file "C:\Program Files (x86)\Microchip\xc8\v2.10\pic\sources\c99\common\nf_fputc.c"
  2104 ;; Parameters:    Size  Location     Type
  2105 ;;  c               2    0[COMRAM] int 
  2106 ;;  fp              2    2[COMRAM] PTR struct _IO_FILE
  2107 ;;		 -> sprintf@f(6), 
  2108 ;; Auto vars:     Size  Location     Type
  2109 ;;		None
  2110 ;; Return value:  Size  Location     Type
  2111 ;;                  2    0[COMRAM] int 
  2112 ;; Registers used:
  2113 ;;		wreg, fsr1l, fsr1h, fsr2l, fsr2h, status,2, status,0, cstack
  2114 ;; Tracked objects:
  2115 ;;		On entry : 0/0
  2116 ;;		On exit  : 0/0
  2117 ;;		Unchanged: 0/0
  2118 ;; Data sizes:     COMRAM   BANK0   BANK1   BANK2   BANK3   BANK4   BANK5
  2119 ;;      Params:         4       0       0       0       0       0       0
  2120 ;;      Locals:         0       0       0       0       0       0       0
  2121 ;;      Temps:          5       0       0       0       0       0       0
  2122 ;;      Totals:         9       0       0       0       0       0       0
  2123 ;;Total ram usage:        9 bytes
  2124 ;; Hardware stack levels used:    1
  2125 ;; Hardware stack levels required when called:    1
  2126 ;; This function calls:
  2127 ;;		_putch
  2128 ;; This function is called by:
  2129 ;;		_pad
  2130 ;;		_vfpfcnvrt
  2131 ;;		_fputs
  2132 ;; This function uses a non-reentrant model
  2133 ;;
  2134                           
  2135                           	psect	text8
  2136  002180                     __ptext8:
  2137                           	opt callstack 0
  2138  002180                     _fputc:
  2139                           	opt callstack 26
  2140  002180  5003               	movf	fputc@fp^0,w,c
  2141  002182  1004               	iorwf	(fputc@fp+1)^0,w,c
  2142  002184  B4D8               	btfsc	status,2,c
  2143  002186  EFC7  F010         	goto	u1651
  2144  00218A  EFC9  F010         	goto	u1650
  2145  00218E                     u1651:
  2146  00218E  EFD2  F010         	goto	l2036
  2147  002192                     u1650:
  2148  002192  5003               	movf	fputc@fp^0,w,c
  2149  002194  1004               	iorwf	(fputc@fp+1)^0,w,c
  2150  002196  A4D8               	btfss	status,2,c
  2151  002198  EFD0  F010         	goto	u1661
  2152  00219C  EFD2  F010         	goto	u1660
  2153  0021A0                     u1661:
  2154  0021A0  EFD7  F010         	goto	l2038
  2155  0021A4                     u1660:
  2156  0021A4                     l2036:
  2157  0021A4  5001               	movf	fputc@c^0,w,c
  2158  0021A6  EC30  F013         	call	_putch
  2159  0021AA  EF24  F011         	goto	l970
  2160  0021AE                     l2038:
  2161  0021AE  EE20 F004          	lfsr	2,4
  2162  0021B2  5003               	movf	fputc@fp^0,w,c
  2163  0021B4  26D9               	addwf	fsr2l,f,c
  2164  0021B6  5004               	movf	(fputc@fp+1)^0,w,c
  2165  0021B8  22DA               	addwfc	fsr2h,f,c
  2166  0021BA  50DE               	movf	postinc2,w,c
  2167  0021BC  10DE               	iorwf	postinc2,w,c
  2168  0021BE  B4D8               	btfsc	status,2,c
  2169  0021C0  EFE4  F010         	goto	u1671
  2170  0021C4  EFE6  F010         	goto	u1670
  2171  0021C8                     u1671:
  2172  0021C8  EF01  F011         	goto	l2042
  2173  0021CC                     u1670:
  2174  0021CC  EE20 F004          	lfsr	2,4
  2175  0021D0  5003               	movf	fputc@fp^0,w,c
  2176  0021D2  26D9               	addwf	fsr2l,f,c
  2177  0021D4  5004               	movf	(fputc@fp+1)^0,w,c
  2178  0021D6  22DA               	addwfc	fsr2h,f,c
  2179  0021D8  EE10 F002          	lfsr	1,2
  2180  0021DC  5003               	movf	fputc@fp^0,w,c
  2181  0021DE  26E1               	addwf	fsr1l,f,c
  2182  0021E0  5004               	movf	(fputc@fp+1)^0,w,c
  2183  0021E2  22E2               	addwfc	fsr1h,f,c
  2184  0021E4  50DE               	movf	postinc2,w,c
  2185  0021E6  5CE6               	subwf	postinc1,w,c
  2186  0021E8  50E6               	movf	postinc1,w,c
  2187  0021EA  0A80               	xorlw	128
  2188  0021EC  6E09               	movwf	(??_fputc+4)^0,c
  2189  0021EE  50DE               	movf	postinc2,w,c
  2190  0021F0  0A80               	xorlw	128
  2191  0021F2  5809               	subwfb	(??_fputc+4)^0,w,c
  2192  0021F4  B0D8               	btfsc	status,0,c
  2193  0021F6  EFFF  F010         	goto	u1681
  2194  0021FA  EF01  F011         	goto	u1680
  2195  0021FE                     u1681:
  2196  0021FE  EF24  F011         	goto	l970
  2197  002202                     u1680:
  2198  002202                     l2042:
  2199  002202  EE20 F002          	lfsr	2,2
  2200  002206  5003               	movf	fputc@fp^0,w,c
  2201  002208  26D9               	addwf	fsr2l,f,c
  2202  00220A  5004               	movf	(fputc@fp+1)^0,w,c
  2203  00220C  22DA               	addwfc	fsr2h,f,c
  2204  00220E  CFDE F005          	movff	postinc2,??_fputc
  2205  002212  CFDD F006          	movff	postdec2,??_fputc+1
  2206  002216  C003  FFD9         	movff	fputc@fp,fsr2l
  2207  00221A  C004  FFDA         	movff	fputc@fp+1,fsr2h
  2208  00221E  CFDE F007          	movff	postinc2,??_fputc+2
  2209  002222  CFDD F008          	movff	postdec2,??_fputc+3
  2210  002226  5005               	movf	??_fputc^0,w,c
  2211  002228  2407               	addwf	(??_fputc+2)^0,w,c
  2212  00222A  6ED9               	movwf	fsr2l,c
  2213  00222C  5006               	movf	(??_fputc+1)^0,w,c
  2214  00222E  2008               	addwfc	(??_fputc+3)^0,w,c
  2215  002230  6EDA               	movwf	fsr2h,c
  2216  002232  C001  FFDF         	movff	fputc@c,indf2
  2217  002236  EE20 F002          	lfsr	2,2
  2218  00223A  5003               	movf	fputc@fp^0,w,c
  2219  00223C  26D9               	addwf	fsr2l,f,c
  2220  00223E  5004               	movf	(fputc@fp+1)^0,w,c
  2221  002240  22DA               	addwfc	fsr2h,f,c
  2222  002242  2ADE               	incf	postinc2,f,c
  2223  002244  0E00               	movlw	0
  2224  002246  22DD               	addwfc	postdec2,f,c
  2225  002248                     l970:
  2226  002248  0012               	return		;funcret
  2227  00224A                     __end_of_fputc:
  2228                           	opt callstack 0
  2229                           
  2230 ;; *************** function _putch *****************
  2231 ;; Defined at:
  2232 ;;		line 7 in file "C:\Program Files (x86)\Microchip\xc8\v2.10\pic\sources\c99\common\putch.c"
  2233 ;; Parameters:    Size  Location     Type
  2234 ;;  c               1    wreg     unsigned char 
  2235 ;; Auto vars:     Size  Location     Type
  2236 ;;  c               1    0[COMRAM] unsigned char 
  2237 ;; Return value:  Size  Location     Type
  2238 ;;                  1    wreg      void 
  2239 ;; Registers used:
  2240 ;;		wreg
  2241 ;; Tracked objects:
  2242 ;;		On entry : 0/0
  2243 ;;		On exit  : 0/0
  2244 ;;		Unchanged: 0/0
  2245 ;; Data sizes:     COMRAM   BANK0   BANK1   BANK2   BANK3   BANK4   BANK5
  2246 ;;      Params:         0       0       0       0       0       0       0
  2247 ;;      Locals:         0       0       0       0       0       0       0
  2248 ;;      Temps:          0       0       0       0       0       0       0
  2249 ;;      Totals:         0       0       0       0       0       0       0
  2250 ;;Total ram usage:        0 bytes
  2251 ;; Hardware stack levels used:    1
  2252 ;; This function calls:
  2253 ;;		Nothing
  2254 ;; This function is called by:
  2255 ;;		_fputc
  2256 ;; This function uses a non-reentrant model
  2257 ;;
  2258                           
  2259                           	psect	text9
  2260  002660                     __ptext9:
  2261                           	opt callstack 0
  2262  002660                     _putch:
  2263                           	opt callstack 26
  2264  002660  0012               	return		;funcret
  2265  002662                     __end_of_putch:
  2266                           	opt callstack 0
  2267                           
  2268 ;; *************** function _abs *****************
  2269 ;; Defined at:
  2270 ;;		line 1 in file "C:\Program Files (x86)\Microchip\xc8\v2.10\pic\sources\c99\common\abs.c"
  2271 ;; Parameters:    Size  Location     Type
  2272 ;;  a               2   18[COMRAM] int 
  2273 ;; Auto vars:     Size  Location     Type
  2274 ;;		None
  2275 ;; Return value:  Size  Location     Type
  2276 ;;                  2   18[COMRAM] int 
  2277 ;; Registers used:
  2278 ;;		wreg, status,2, status,0
  2279 ;; Tracked objects:
  2280 ;;		On entry : 0/0
  2281 ;;		On exit  : 0/0
  2282 ;;		Unchanged: 0/0
  2283 ;; Data sizes:     COMRAM   BANK0   BANK1   BANK2   BANK3   BANK4   BANK5
  2284 ;;      Params:         2       0       0       0       0       0       0
  2285 ;;      Locals:         0       0       0       0       0       0       0
  2286 ;;      Temps:          2       0       0       0       0       0       0
  2287 ;;      Totals:         4       0       0       0       0       0       0
  2288 ;;Total ram usage:        4 bytes
  2289 ;; Hardware stack levels used:    1
  2290 ;; This function calls:
  2291 ;;		Nothing
  2292 ;; This function is called by:
  2293 ;;		_dtoa
  2294 ;; This function uses a non-reentrant model
  2295 ;;
  2296                           
  2297                           	psect	text10
  2298  002544                     __ptext10:
  2299                           	opt callstack 0
  2300  002544                     _abs:
  2301                           	opt callstack 26
  2302  002544  BE14               	btfsc	(abs@a+1)^0,7,c
  2303  002546  EFAF  F012         	goto	u1750
  2304  00254A  5014               	movf	(abs@a+1)^0,w,c
  2305  00254C  E106               	bnz	u1751
  2306  00254E  0413               	decf	abs@a^0,w,c
  2307  002550  B0D8               	btfsc	status,0,c
  2308  002552  EFAD  F012         	goto	u1751
  2309  002556  EFAF  F012         	goto	u1750
  2310  00255A                     u1751:
  2311  00255A  EFBD  F012         	goto	l955
  2312  00255E                     u1750:
  2313  00255E  C013  F015         	movff	abs@a,??_abs
  2314  002562  C014  F016         	movff	abs@a+1,??_abs+1
  2315  002566  1E15               	comf	??_abs^0,f,c
  2316  002568  1E16               	comf	(??_abs+1)^0,f,c
  2317  00256A  4A15               	infsnz	??_abs^0,f,c
  2318  00256C  2A16               	incf	(??_abs+1)^0,f,c
  2319  00256E  C015  F013         	movff	??_abs,?_abs
  2320  002572  C016  F014         	movff	??_abs+1,?_abs+1
  2321  002576  EFC1  F012         	goto	l958
  2322  00257A                     l955:
  2323  00257A  C013  F013         	movff	abs@a,?_abs
  2324  00257E  C014  F014         	movff	abs@a+1,?_abs+1
  2325  002582                     l958:
  2326  002582  0012               	return		;funcret
  2327  002584                     __end_of_abs:
  2328                           	opt callstack 0
  2329                           
  2330 ;; *************** function ___aomod *****************
  2331 ;; Defined at:
  2332 ;;		line 9 in file "C:\Program Files (x86)\Microchip\xc8\v2.10\pic\sources\c99\common\aomod.c"
  2333 ;; Parameters:    Size  Location     Type
  2334 ;;  dividend        8    0[COMRAM] long long 
  2335 ;;  divisor         8    8[COMRAM] long long 
  2336 ;; Auto vars:     Size  Location     Type
  2337 ;;  sign            1   17[COMRAM] unsigned char 
  2338 ;;  counter         1   16[COMRAM] unsigned char 
  2339 ;; Return value:  Size  Location     Type
  2340 ;;                  8    0[COMRAM] long long 
  2341 ;; Registers used:
  2342 ;;		wreg, status,2, status,0
  2343 ;; Tracked objects:
  2344 ;;		On entry : 0/0
  2345 ;;		On exit  : 0/0
  2346 ;;		Unchanged: 0/0
  2347 ;; Data sizes:     COMRAM   BANK0   BANK1   BANK2   BANK3   BANK4   BANK5
  2348 ;;      Params:        16       0       0       0       0       0       0
  2349 ;;      Locals:         2       0       0       0       0       0       0
  2350 ;;      Temps:          0       0       0       0       0       0       0
  2351 ;;      Totals:        18       0       0       0       0       0       0
  2352 ;;Total ram usage:       18 bytes
  2353 ;; Hardware stack levels used:    1
  2354 ;; This function calls:
  2355 ;;		Nothing
  2356 ;; This function is called by:
  2357 ;;		_dtoa
  2358 ;; This function uses a non-reentrant model
  2359 ;;
  2360                           
  2361                           	psect	text11
  2362  001C4E                     __ptext11:
  2363                           	opt callstack 0
  2364  001C4E                     ___aomod:
  2365                           	opt callstack 26
  2366  001C4E  0E00               	movlw	0
  2367  001C50  6E12               	movwf	___aomod@sign^0,c
  2368  001C52  BE08               	btfsc	(___aomod@dividend+7)^0,7,c
  2369  001C54  EF30  F00E         	goto	u1830
  2370  001C58  EF2E  F00E         	goto	u1831
  2371  001C5C                     u1831:
  2372  001C5C  EF42  F00E         	goto	l2142
  2373  001C60                     u1830:
  2374  001C60  1E08               	comf	(___aomod@dividend+7)^0,f,c
  2375  001C62  1E07               	comf	(___aomod@dividend+6)^0,f,c
  2376  001C64  1E06               	comf	(___aomod@dividend+5)^0,f,c
  2377  001C66  1E05               	comf	(___aomod@dividend+4)^0,f,c
  2378  001C68  1E04               	comf	(___aomod@dividend+3)^0,f,c
  2379  001C6A  1E03               	comf	(___aomod@dividend+2)^0,f,c
  2380  001C6C  1E02               	comf	(___aomod@dividend+1)^0,f,c
  2381  001C6E  6C01               	negf	___aomod@dividend^0,c
  2382  001C70  0E00               	movlw	0
  2383  001C72  2202               	addwfc	(___aomod@dividend+1)^0,f,c
  2384  001C74  2203               	addwfc	(___aomod@dividend+2)^0,f,c
  2385  001C76  2204               	addwfc	(___aomod@dividend+3)^0,f,c
  2386  001C78  2205               	addwfc	(___aomod@dividend+4)^0,f,c
  2387  001C7A  2206               	addwfc	(___aomod@dividend+5)^0,f,c
  2388  001C7C  2207               	addwfc	(___aomod@dividend+6)^0,f,c
  2389  001C7E  2208               	addwfc	(___aomod@dividend+7)^0,f,c
  2390  001C80  0E01               	movlw	1
  2391  001C82  6E12               	movwf	___aomod@sign^0,c
  2392  001C84                     l2142:
  2393  001C84  BE10               	btfsc	(___aomod@divisor+7)^0,7,c
  2394  001C86  EF49  F00E         	goto	u1840
  2395  001C8A  EF47  F00E         	goto	u1841
  2396  001C8E                     u1841:
  2397  001C8E  EF59  F00E         	goto	l2146
  2398  001C92                     u1840:
  2399  001C92  1E10               	comf	(___aomod@divisor+7)^0,f,c
  2400  001C94  1E0F               	comf	(___aomod@divisor+6)^0,f,c
  2401  001C96  1E0E               	comf	(___aomod@divisor+5)^0,f,c
  2402  001C98  1E0D               	comf	(___aomod@divisor+4)^0,f,c
  2403  001C9A  1E0C               	comf	(___aomod@divisor+3)^0,f,c
  2404  001C9C  1E0B               	comf	(___aomod@divisor+2)^0,f,c
  2405  001C9E  1E0A               	comf	(___aomod@divisor+1)^0,f,c
  2406  001CA0  6C09               	negf	___aomod@divisor^0,c
  2407  001CA2  0E00               	movlw	0
  2408  001CA4  220A               	addwfc	(___aomod@divisor+1)^0,f,c
  2409  001CA6  220B               	addwfc	(___aomod@divisor+2)^0,f,c
  2410  001CA8  220C               	addwfc	(___aomod@divisor+3)^0,f,c
  2411  001CAA  220D               	addwfc	(___aomod@divisor+4)^0,f,c
  2412  001CAC  220E               	addwfc	(___aomod@divisor+5)^0,f,c
  2413  001CAE  220F               	addwfc	(___aomod@divisor+6)^0,f,c
  2414  001CB0  2210               	addwfc	(___aomod@divisor+7)^0,f,c
  2415  001CB2                     l2146:
  2416  001CB2  5009               	movf	___aomod@divisor^0,w,c
  2417  001CB4  100A               	iorwf	(___aomod@divisor+1)^0,w,c
  2418  001CB6  100B               	iorwf	(___aomod@divisor+2)^0,w,c
  2419  001CB8  100C               	iorwf	(___aomod@divisor+3)^0,w,c
  2420  001CBA  100D               	iorwf	(___aomod@divisor+4)^0,w,c
  2421  001CBC  100E               	iorwf	(___aomod@divisor+5)^0,w,c
  2422  001CBE  100F               	iorwf	(___aomod@divisor+6)^0,w,c
  2423  001CC0  1010               	iorwf	(___aomod@divisor+7)^0,w,c
  2424  001CC2  B4D8               	btfsc	status,2,c
  2425  001CC4  EF66  F00E         	goto	u1851
  2426  001CC8  EF68  F00E         	goto	u1850
  2427  001CCC                     u1851:
  2428  001CCC  EFB0  F00E         	goto	l2162
  2429  001CD0                     u1850:
  2430  001CD0  0E01               	movlw	1
  2431  001CD2  6E11               	movwf	___aomod@counter^0,c
  2432  001CD4  EF76  F00E         	goto	l2152
  2433  001CD8                     l2150:
  2434  001CD8  90D8               	bcf	status,0,c
  2435  001CDA  3609               	rlcf	___aomod@divisor^0,f,c
  2436  001CDC  360A               	rlcf	(___aomod@divisor+1)^0,f,c
  2437  001CDE  360B               	rlcf	(___aomod@divisor+2)^0,f,c
  2438  001CE0  360C               	rlcf	(___aomod@divisor+3)^0,f,c
  2439  001CE2  360D               	rlcf	(___aomod@divisor+4)^0,f,c
  2440  001CE4  360E               	rlcf	(___aomod@divisor+5)^0,f,c
  2441  001CE6  360F               	rlcf	(___aomod@divisor+6)^0,f,c
  2442  001CE8  3610               	rlcf	(___aomod@divisor+7)^0,f,c
  2443  001CEA  2A11               	incf	___aomod@counter^0,f,c
  2444  001CEC                     l2152:
  2445  001CEC  AE10               	btfss	(___aomod@divisor+7)^0,7,c
  2446  001CEE  EF7B  F00E         	goto	u1861
  2447  001CF2  EF7D  F00E         	goto	u1860
  2448  001CF6                     u1861:
  2449  001CF6  EF6C  F00E         	goto	l2150
  2450  001CFA                     u1860:
  2451  001CFA                     l2154:
  2452  001CFA  5009               	movf	___aomod@divisor^0,w,c
  2453  001CFC  5C01               	subwf	___aomod@dividend^0,w,c
  2454  001CFE  500A               	movf	(___aomod@divisor+1)^0,w,c
  2455  001D00  5802               	subwfb	(___aomod@dividend+1)^0,w,c
  2456  001D02  500B               	movf	(___aomod@divisor+2)^0,w,c
  2457  001D04  5803               	subwfb	(___aomod@dividend+2)^0,w,c
  2458  001D06  500C               	movf	(___aomod@divisor+3)^0,w,c
  2459  001D08  5804               	subwfb	(___aomod@dividend+3)^0,w,c
  2460  001D0A  500D               	movf	(___aomod@divisor+4)^0,w,c
  2461  001D0C  5805               	subwfb	(___aomod@dividend+4)^0,w,c
  2462  001D0E  500E               	movf	(___aomod@divisor+5)^0,w,c
  2463  001D10  5806               	subwfb	(___aomod@dividend+5)^0,w,c
  2464  001D12  500F               	movf	(___aomod@divisor+6)^0,w,c
  2465  001D14  5807               	subwfb	(___aomod@dividend+6)^0,w,c
  2466  001D16  5010               	movf	(___aomod@divisor+7)^0,w,c
  2467  001D18  5808               	subwfb	(___aomod@dividend+7)^0,w,c
  2468  001D1A  A0D8               	btfss	status,0,c
  2469  001D1C  EF92  F00E         	goto	u1871
  2470  001D20  EF94  F00E         	goto	u1870
  2471  001D24                     u1871:
  2472  001D24  EFA4  F00E         	goto	l2158
  2473  001D28                     u1870:
  2474  001D28  5009               	movf	___aomod@divisor^0,w,c
  2475  001D2A  5E01               	subwf	___aomod@dividend^0,f,c
  2476  001D2C  500A               	movf	(___aomod@divisor+1)^0,w,c
  2477  001D2E  5A02               	subwfb	(___aomod@dividend+1)^0,f,c
  2478  001D30  500B               	movf	(___aomod@divisor+2)^0,w,c
  2479  001D32  5A03               	subwfb	(___aomod@dividend+2)^0,f,c
  2480  001D34  500C               	movf	(___aomod@divisor+3)^0,w,c
  2481  001D36  5A04               	subwfb	(___aomod@dividend+3)^0,f,c
  2482  001D38  500D               	movf	(___aomod@divisor+4)^0,w,c
  2483  001D3A  5A05               	subwfb	(___aomod@dividend+4)^0,f,c
  2484  001D3C  500E               	movf	(___aomod@divisor+5)^0,w,c
  2485  001D3E  5A06               	subwfb	(___aomod@dividend+5)^0,f,c
  2486  001D40  500F               	movf	(___aomod@divisor+6)^0,w,c
  2487  001D42  5A07               	subwfb	(___aomod@dividend+6)^0,f,c
  2488  001D44  5010               	movf	(___aomod@divisor+7)^0,w,c
  2489  001D46  5A08               	subwfb	(___aomod@dividend+7)^0,f,c
  2490  001D48                     l2158:
  2491  001D48  90D8               	bcf	status,0,c
  2492  001D4A  3210               	rrcf	(___aomod@divisor+7)^0,f,c
  2493  001D4C  320F               	rrcf	(___aomod@divisor+6)^0,f,c
  2494  001D4E  320E               	rrcf	(___aomod@divisor+5)^0,f,c
  2495  001D50  320D               	rrcf	(___aomod@divisor+4)^0,f,c
  2496  001D52  320C               	rrcf	(___aomod@divisor+3)^0,f,c
  2497  001D54  320B               	rrcf	(___aomod@divisor+2)^0,f,c
  2498  001D56  320A               	rrcf	(___aomod@divisor+1)^0,f,c
  2499  001D58  3209               	rrcf	___aomod@divisor^0,f,c
  2500  001D5A  2E11               	decfsz	___aomod@counter^0,f,c
  2501  001D5C  EF7D  F00E         	goto	l2154
  2502  001D60                     l2162:
  2503  001D60  5012               	movf	___aomod@sign^0,w,c
  2504  001D62  B4D8               	btfsc	status,2,c
  2505  001D64  EFB6  F00E         	goto	u1881
  2506  001D68  EFB8  F00E         	goto	u1880
  2507  001D6C                     u1881:
  2508  001D6C  EFC8  F00E         	goto	l2166
  2509  001D70                     u1880:
  2510  001D70  1E08               	comf	(___aomod@dividend+7)^0,f,c
  2511  001D72  1E07               	comf	(___aomod@dividend+6)^0,f,c
  2512  001D74  1E06               	comf	(___aomod@dividend+5)^0,f,c
  2513  001D76  1E05               	comf	(___aomod@dividend+4)^0,f,c
  2514  001D78  1E04               	comf	(___aomod@dividend+3)^0,f,c
  2515  001D7A  1E03               	comf	(___aomod@dividend+2)^0,f,c
  2516  001D7C  1E02               	comf	(___aomod@dividend+1)^0,f,c
  2517  001D7E  6C01               	negf	___aomod@dividend^0,c
  2518  001D80  0E00               	movlw	0
  2519  001D82  2202               	addwfc	(___aomod@dividend+1)^0,f,c
  2520  001D84  2203               	addwfc	(___aomod@dividend+2)^0,f,c
  2521  001D86  2204               	addwfc	(___aomod@dividend+3)^0,f,c
  2522  001D88  2205               	addwfc	(___aomod@dividend+4)^0,f,c
  2523  001D8A  2206               	addwfc	(___aomod@dividend+5)^0,f,c
  2524  001D8C  2207               	addwfc	(___aomod@dividend+6)^0,f,c
  2525  001D8E  2208               	addwfc	(___aomod@dividend+7)^0,f,c
  2526  001D90                     l2166:
  2527  001D90  C001  F001         	movff	___aomod@dividend,?___aomod
  2528  001D94  C002  F002         	movff	___aomod@dividend+1,?___aomod+1
  2529  001D98  C003  F003         	movff	___aomod@dividend+2,?___aomod+2
  2530  001D9C  C004  F004         	movff	___aomod@dividend+3,?___aomod+3
  2531  001DA0  C005  F005         	movff	___aomod@dividend+4,?___aomod+4
  2532  001DA4  C006  F006         	movff	___aomod@dividend+5,?___aomod+5
  2533  001DA8  C007  F007         	movff	___aomod@dividend+6,?___aomod+6
  2534  001DAC  C008  F008         	movff	___aomod@dividend+7,?___aomod+7
  2535  001DB0  0012               	return		;funcret
  2536  001DB2                     __end_of___aomod:
  2537                           	opt callstack 0
  2538                           
  2539 ;; *************** function ___aodiv *****************
  2540 ;; Defined at:
  2541 ;;		line 9 in file "C:\Program Files (x86)\Microchip\xc8\v2.10\pic\sources\c99\common\aodiv.c"
  2542 ;; Parameters:    Size  Location     Type
  2543 ;;  dividend        8    0[COMRAM] long long 
  2544 ;;  divisor         8    8[COMRAM] long long 
  2545 ;; Auto vars:     Size  Location     Type
  2546 ;;  quotient        8   18[COMRAM] long long 
  2547 ;;  sign            1   17[COMRAM] unsigned char 
  2548 ;;  counter         1   16[COMRAM] unsigned char 
  2549 ;; Return value:  Size  Location     Type
  2550 ;;                  8    0[COMRAM] long long 
  2551 ;; Registers used:
  2552 ;;		wreg, fsr2l, fsr2h, status,2, status,0
  2553 ;; Tracked objects:
  2554 ;;		On entry : 0/0
  2555 ;;		On exit  : 0/0
  2556 ;;		Unchanged: 0/0
  2557 ;; Data sizes:     COMRAM   BANK0   BANK1   BANK2   BANK3   BANK4   BANK5
  2558 ;;      Params:        16       0       0       0       0       0       0
  2559 ;;      Locals:        10       0       0       0       0       0       0
  2560 ;;      Temps:          0       0       0       0       0       0       0
  2561 ;;      Totals:        26       0       0       0       0       0       0
  2562 ;;Total ram usage:       26 bytes
  2563 ;; Hardware stack levels used:    1
  2564 ;; This function calls:
  2565 ;;		Nothing
  2566 ;; This function is called by:
  2567 ;;		_dtoa
  2568 ;; This function uses a non-reentrant model
  2569 ;;
  2570                           
  2571                           	psect	text12
  2572  001AC6                     __ptext12:
  2573                           	opt callstack 0
  2574  001AC6                     ___aodiv:
  2575                           	opt callstack 26
  2576  001AC6  0E00               	movlw	0
  2577  001AC8  6E12               	movwf	___aodiv@sign^0,c
  2578  001ACA  BE10               	btfsc	(___aodiv@divisor+7)^0,7,c
  2579  001ACC  EF6C  F00D         	goto	u1760
  2580  001AD0  EF6A  F00D         	goto	u1761
  2581  001AD4                     u1761:
  2582  001AD4  EF7E  F00D         	goto	l2098
  2583  001AD8                     u1760:
  2584  001AD8  1E10               	comf	(___aodiv@divisor+7)^0,f,c
  2585  001ADA  1E0F               	comf	(___aodiv@divisor+6)^0,f,c
  2586  001ADC  1E0E               	comf	(___aodiv@divisor+5)^0,f,c
  2587  001ADE  1E0D               	comf	(___aodiv@divisor+4)^0,f,c
  2588  001AE0  1E0C               	comf	(___aodiv@divisor+3)^0,f,c
  2589  001AE2  1E0B               	comf	(___aodiv@divisor+2)^0,f,c
  2590  001AE4  1E0A               	comf	(___aodiv@divisor+1)^0,f,c
  2591  001AE6  6C09               	negf	___aodiv@divisor^0,c
  2592  001AE8  0E00               	movlw	0
  2593  001AEA  220A               	addwfc	(___aodiv@divisor+1)^0,f,c
  2594  001AEC  220B               	addwfc	(___aodiv@divisor+2)^0,f,c
  2595  001AEE  220C               	addwfc	(___aodiv@divisor+3)^0,f,c
  2596  001AF0  220D               	addwfc	(___aodiv@divisor+4)^0,f,c
  2597  001AF2  220E               	addwfc	(___aodiv@divisor+5)^0,f,c
  2598  001AF4  220F               	addwfc	(___aodiv@divisor+6)^0,f,c
  2599  001AF6  2210               	addwfc	(___aodiv@divisor+7)^0,f,c
  2600  001AF8  0E01               	movlw	1
  2601  001AFA  6E12               	movwf	___aodiv@sign^0,c
  2602  001AFC                     l2098:
  2603  001AFC  BE08               	btfsc	(___aodiv@dividend+7)^0,7,c
  2604  001AFE  EF85  F00D         	goto	u1770
  2605  001B02  EF83  F00D         	goto	u1771
  2606  001B06                     u1771:
  2607  001B06  EF97  F00D         	goto	l2104
  2608  001B0A                     u1770:
  2609  001B0A  1E08               	comf	(___aodiv@dividend+7)^0,f,c
  2610  001B0C  1E07               	comf	(___aodiv@dividend+6)^0,f,c
  2611  001B0E  1E06               	comf	(___aodiv@dividend+5)^0,f,c
  2612  001B10  1E05               	comf	(___aodiv@dividend+4)^0,f,c
  2613  001B12  1E04               	comf	(___aodiv@dividend+3)^0,f,c
  2614  001B14  1E03               	comf	(___aodiv@dividend+2)^0,f,c
  2615  001B16  1E02               	comf	(___aodiv@dividend+1)^0,f,c
  2616  001B18  6C01               	negf	___aodiv@dividend^0,c
  2617  001B1A  0E00               	movlw	0
  2618  001B1C  2202               	addwfc	(___aodiv@dividend+1)^0,f,c
  2619  001B1E  2203               	addwfc	(___aodiv@dividend+2)^0,f,c
  2620  001B20  2204               	addwfc	(___aodiv@dividend+3)^0,f,c
  2621  001B22  2205               	addwfc	(___aodiv@dividend+4)^0,f,c
  2622  001B24  2206               	addwfc	(___aodiv@dividend+5)^0,f,c
  2623  001B26  2207               	addwfc	(___aodiv@dividend+6)^0,f,c
  2624  001B28  2208               	addwfc	(___aodiv@dividend+7)^0,f,c
  2625  001B2A  0E01               	movlw	1
  2626  001B2C  1A12               	xorwf	___aodiv@sign^0,f,c
  2627  001B2E                     l2104:
  2628  001B2E  EE20  F013         	lfsr	2,___aodiv@quotient
  2629  001B32  0E07               	movlw	7
  2630  001B34                     u1781:
  2631  001B34  6ADE               	clrf	postinc2,c
  2632  001B36  06E8               	decf	wreg,f,c
  2633  001B38  E2FD               	bc	u1781
  2634  001B3A  5009               	movf	___aodiv@divisor^0,w,c
  2635  001B3C  100A               	iorwf	(___aodiv@divisor+1)^0,w,c
  2636  001B3E  100B               	iorwf	(___aodiv@divisor+2)^0,w,c
  2637  001B40  100C               	iorwf	(___aodiv@divisor+3)^0,w,c
  2638  001B42  100D               	iorwf	(___aodiv@divisor+4)^0,w,c
  2639  001B44  100E               	iorwf	(___aodiv@divisor+5)^0,w,c
  2640  001B46  100F               	iorwf	(___aodiv@divisor+6)^0,w,c
  2641  001B48  1010               	iorwf	(___aodiv@divisor+7)^0,w,c
  2642  001B4A  B4D8               	btfsc	status,2,c
  2643  001B4C  EFAA  F00D         	goto	u1791
  2644  001B50  EFAC  F00D         	goto	u1790
  2645  001B54                     u1791:
  2646  001B54  EFFE  F00D         	goto	l2126
  2647  001B58                     u1790:
  2648  001B58  0E01               	movlw	1
  2649  001B5A  6E11               	movwf	___aodiv@counter^0,c
  2650  001B5C  EFBA  F00D         	goto	l2112
  2651  001B60                     l2110:
  2652  001B60  90D8               	bcf	status,0,c
  2653  001B62  3609               	rlcf	___aodiv@divisor^0,f,c
  2654  001B64  360A               	rlcf	(___aodiv@divisor+1)^0,f,c
  2655  001B66  360B               	rlcf	(___aodiv@divisor+2)^0,f,c
  2656  001B68  360C               	rlcf	(___aodiv@divisor+3)^0,f,c
  2657  001B6A  360D               	rlcf	(___aodiv@divisor+4)^0,f,c
  2658  001B6C  360E               	rlcf	(___aodiv@divisor+5)^0,f,c
  2659  001B6E  360F               	rlcf	(___aodiv@divisor+6)^0,f,c
  2660  001B70  3610               	rlcf	(___aodiv@divisor+7)^0,f,c
  2661  001B72  2A11               	incf	___aodiv@counter^0,f,c
  2662  001B74                     l2112:
  2663  001B74  AE10               	btfss	(___aodiv@divisor+7)^0,7,c
  2664  001B76  EFBF  F00D         	goto	u1801
  2665  001B7A  EFC1  F00D         	goto	u1800
  2666  001B7E                     u1801:
  2667  001B7E  EFB0  F00D         	goto	l2110
  2668  001B82                     u1800:
  2669  001B82                     l2114:
  2670  001B82  90D8               	bcf	status,0,c
  2671  001B84  3613               	rlcf	___aodiv@quotient^0,f,c
  2672  001B86  3614               	rlcf	(___aodiv@quotient+1)^0,f,c
  2673  001B88  3615               	rlcf	(___aodiv@quotient+2)^0,f,c
  2674  001B8A  3616               	rlcf	(___aodiv@quotient+3)^0,f,c
  2675  001B8C  3617               	rlcf	(___aodiv@quotient+4)^0,f,c
  2676  001B8E  3618               	rlcf	(___aodiv@quotient+5)^0,f,c
  2677  001B90  3619               	rlcf	(___aodiv@quotient+6)^0,f,c
  2678  001B92  361A               	rlcf	(___aodiv@quotient+7)^0,f,c
  2679  001B94  5009               	movf	___aodiv@divisor^0,w,c
  2680  001B96  5C01               	subwf	___aodiv@dividend^0,w,c
  2681  001B98  500A               	movf	(___aodiv@divisor+1)^0,w,c
  2682  001B9A  5802               	subwfb	(___aodiv@dividend+1)^0,w,c
  2683  001B9C  500B               	movf	(___aodiv@divisor+2)^0,w,c
  2684  001B9E  5803               	subwfb	(___aodiv@dividend+2)^0,w,c
  2685  001BA0  500C               	movf	(___aodiv@divisor+3)^0,w,c
  2686  001BA2  5804               	subwfb	(___aodiv@dividend+3)^0,w,c
  2687  001BA4  500D               	movf	(___aodiv@divisor+4)^0,w,c
  2688  001BA6  5805               	subwfb	(___aodiv@dividend+4)^0,w,c
  2689  001BA8  500E               	movf	(___aodiv@divisor+5)^0,w,c
  2690  001BAA  5806               	subwfb	(___aodiv@dividend+5)^0,w,c
  2691  001BAC  500F               	movf	(___aodiv@divisor+6)^0,w,c
  2692  001BAE  5807               	subwfb	(___aodiv@dividend+6)^0,w,c
  2693  001BB0  5010               	movf	(___aodiv@divisor+7)^0,w,c
  2694  001BB2  5808               	subwfb	(___aodiv@dividend+7)^0,w,c
  2695  001BB4  A0D8               	btfss	status,0,c
  2696  001BB6  EFDF  F00D         	goto	u1811
  2697  001BBA  EFE1  F00D         	goto	u1810
  2698  001BBE                     u1811:
  2699  001BBE  EFF2  F00D         	goto	l2122
  2700  001BC2                     u1810:
  2701  001BC2  5009               	movf	___aodiv@divisor^0,w,c
  2702  001BC4  5E01               	subwf	___aodiv@dividend^0,f,c
  2703  001BC6  500A               	movf	(___aodiv@divisor+1)^0,w,c
  2704  001BC8  5A02               	subwfb	(___aodiv@dividend+1)^0,f,c
  2705  001BCA  500B               	movf	(___aodiv@divisor+2)^0,w,c
  2706  001BCC  5A03               	subwfb	(___aodiv@dividend+2)^0,f,c
  2707  001BCE  500C               	movf	(___aodiv@divisor+3)^0,w,c
  2708  001BD0  5A04               	subwfb	(___aodiv@dividend+3)^0,f,c
  2709  001BD2  500D               	movf	(___aodiv@divisor+4)^0,w,c
  2710  001BD4  5A05               	subwfb	(___aodiv@dividend+4)^0,f,c
  2711  001BD6  500E               	movf	(___aodiv@divisor+5)^0,w,c
  2712  001BD8  5A06               	subwfb	(___aodiv@dividend+5)^0,f,c
  2713  001BDA  500F               	movf	(___aodiv@divisor+6)^0,w,c
  2714  001BDC  5A07               	subwfb	(___aodiv@dividend+6)^0,f,c
  2715  001BDE  5010               	movf	(___aodiv@divisor+7)^0,w,c
  2716  001BE0  5A08               	subwfb	(___aodiv@dividend+7)^0,f,c
  2717  001BE2  8013               	bsf	___aodiv@quotient^0,0,c
  2718  001BE4                     l2122:
  2719  001BE4  90D8               	bcf	status,0,c
  2720  001BE6  3210               	rrcf	(___aodiv@divisor+7)^0,f,c
  2721  001BE8  320F               	rrcf	(___aodiv@divisor+6)^0,f,c
  2722  001BEA  320E               	rrcf	(___aodiv@divisor+5)^0,f,c
  2723  001BEC  320D               	rrcf	(___aodiv@divisor+4)^0,f,c
  2724  001BEE  320C               	rrcf	(___aodiv@divisor+3)^0,f,c
  2725  001BF0  320B               	rrcf	(___aodiv@divisor+2)^0,f,c
  2726  001BF2  320A               	rrcf	(___aodiv@divisor+1)^0,f,c
  2727  001BF4  3209               	rrcf	___aodiv@divisor^0,f,c
  2728  001BF6  2E11               	decfsz	___aodiv@counter^0,f,c
  2729  001BF8  EFC1  F00D         	goto	l2114
  2730  001BFC                     l2126:
  2731  001BFC  5012               	movf	___aodiv@sign^0,w,c
  2732  001BFE  B4D8               	btfsc	status,2,c
  2733  001C00  EF04  F00E         	goto	u1821
  2734  001C04  EF06  F00E         	goto	u1820
  2735  001C08                     u1821:
  2736  001C08  EF16  F00E         	goto	l2130
  2737  001C0C                     u1820:
  2738  001C0C  1E1A               	comf	(___aodiv@quotient+7)^0,f,c
  2739  001C0E  1E19               	comf	(___aodiv@quotient+6)^0,f,c
  2740  001C10  1E18               	comf	(___aodiv@quotient+5)^0,f,c
  2741  001C12  1E17               	comf	(___aodiv@quotient+4)^0,f,c
  2742  001C14  1E16               	comf	(___aodiv@quotient+3)^0,f,c
  2743  001C16  1E15               	comf	(___aodiv@quotient+2)^0,f,c
  2744  001C18  1E14               	comf	(___aodiv@quotient+1)^0,f,c
  2745  001C1A  6C13               	negf	___aodiv@quotient^0,c
  2746  001C1C  0E00               	movlw	0
  2747  001C1E  2214               	addwfc	(___aodiv@quotient+1)^0,f,c
  2748  001C20  2215               	addwfc	(___aodiv@quotient+2)^0,f,c
  2749  001C22  2216               	addwfc	(___aodiv@quotient+3)^0,f,c
  2750  001C24  2217               	addwfc	(___aodiv@quotient+4)^0,f,c
  2751  001C26  2218               	addwfc	(___aodiv@quotient+5)^0,f,c
  2752  001C28  2219               	addwfc	(___aodiv@quotient+6)^0,f,c
  2753  001C2A  221A               	addwfc	(___aodiv@quotient+7)^0,f,c
  2754  001C2C                     l2130:
  2755  001C2C  C013  F001         	movff	___aodiv@quotient,?___aodiv
  2756  001C30  C014  F002         	movff	___aodiv@quotient+1,?___aodiv+1
  2757  001C34  C015  F003         	movff	___aodiv@quotient+2,?___aodiv+2
  2758  001C38  C016  F004         	movff	___aodiv@quotient+3,?___aodiv+3
  2759  001C3C  C017  F005         	movff	___aodiv@quotient+4,?___aodiv+4
  2760  001C40  C018  F006         	movff	___aodiv@quotient+5,?___aodiv+5
  2761  001C44  C019  F007         	movff	___aodiv@quotient+6,?___aodiv+6
  2762  001C48  C01A  F008         	movff	___aodiv@quotient+7,?___aodiv+7
  2763  001C4C  0012               	return		;funcret
  2764  001C4E                     __end_of___aodiv:
  2765                           	opt callstack 0
  2766                           
  2767 ;; *************** function _find_distance2 *****************
  2768 ;; Defined at:
  2769 ;;		line 26 in file "ultrasonic.c"
  2770 ;; Parameters:    Size  Location     Type
  2771 ;;		None
  2772 ;; Auto vars:     Size  Location     Type
  2773 ;;		None
  2774 ;; Return value:  Size  Location     Type
  2775 ;;                  1    wreg      void 
  2776 ;; Registers used:
  2777 ;;		wreg, status,2, status,0, prodl, prodh, cstack
  2778 ;; Tracked objects:
  2779 ;;		On entry : 0/0
  2780 ;;		On exit  : 0/0
  2781 ;;		Unchanged: 0/0
  2782 ;; Data sizes:     COMRAM   BANK0   BANK1   BANK2   BANK3   BANK4   BANK5
  2783 ;;      Params:         0       0       0       0       0       0       0
  2784 ;;      Locals:         0       0       0       0       0       0       0
  2785 ;;      Temps:          0       0       0       0       0       0       0
  2786 ;;      Totals:         0       0       0       0       0       0       0
  2787 ;;Total ram usage:        0 bytes
  2788 ;; Hardware stack levels used:    1
  2789 ;; Hardware stack levels required when called:    1
  2790 ;; This function calls:
  2791 ;;		_Trigger_Pulse2_10us
  2792 ;;		___fladd
  2793 ;;		___fldiv
  2794 ;;		___flmul
  2795 ;;		___fltol
  2796 ;;		___xxtofl
  2797 ;; This function is called by:
  2798 ;;		_main
  2799 ;; This function uses a non-reentrant model
  2800 ;;
  2801                           
  2802                           	psect	text13
  2803  001DB2                     __ptext13:
  2804                           	opt callstack 0
  2805  001DB2                     _find_distance2:
  2806                           	opt callstack 29
  2807  001DB2                     
  2808                           ;ultrasonic.c: 27:     dist2 = 0;
  2809  001DB2  0E00               	movlw	0
  2810  001DB4  0100               	movlb	0	; () banked
  2811  001DB6  6FBA               	movwf	_dist2& (0+255),b
  2812  001DB8  0E00               	movlw	0
  2813  001DBA  6FBB               	movwf	(_dist2+1)& (0+255),b
  2814  001DBC  0E00               	movlw	0
  2815  001DBE  6FBC               	movwf	(_dist2+2)& (0+255),b
  2816  001DC0  0E00               	movlw	0
  2817  001DC2  6FBD               	movwf	(_dist2+3)& (0+255),b
  2818                           
  2819                           ;ultrasonic.c: 28:     for(j=0; j<10; j++) {
  2820  001DC4  0E00               	movlw	0
  2821  001DC6  6FD5               	movwf	(_j+1)& (0+255),b
  2822  001DC8  0E00               	movlw	0
  2823  001DCA  6FD4               	movwf	_j& (0+255),b
  2824  001DCC                     l2986:
  2825                           
  2826                           ; BSR set to: 0
  2827                           ;ultrasonic.c: 29:         Trigger_Pulse2_10us();
  2828  001DCC  EC22  F013         	call	_Trigger_Pulse2_10us	;wreg free
  2829  001DD0                     l194:
  2830  001DD0  A281               	btfss	129,1,c	;volatile
  2831  001DD2  EFED  F00E         	goto	u3171
  2832  001DD6  EFEF  F00E         	goto	u3170
  2833  001DDA                     u3171:
  2834  001DDA  EFE8  F00E         	goto	l194
  2835  001DDE                     u3170:
  2836  001DDE                     
  2837                           ;ultrasonic.c: 31:         TMR1=0;
  2838  001DDE  0E00               	movlw	0
  2839  001DE0  6ECF               	movwf	207,c	;volatile
  2840  001DE2  0E00               	movlw	0
  2841  001DE4  6ECE               	movwf	206,c	;volatile
  2842  001DE6                     
  2843                           ;ultrasonic.c: 32:         TMR1ON=1;
  2844  001DE6  80CD               	bsf	4045,0,c	;volatile
  2845  001DE8                     l197:
  2846  001DE8  A281               	btfss	129,1,c	;volatile
  2847  001DEA  EFF9  F00E         	goto	u3181
  2848  001DEE  EFFB  F00E         	goto	u3180
  2849  001DF2                     u3181:
  2850  001DF2  EF02  F00F         	goto	l201
  2851  001DF6                     u3180:
  2852  001DF6  A09E               	btfss	3998,0,c	;volatile
  2853  001DF8  EF00  F00F         	goto	u3191
  2854  001DFC  EF02  F00F         	goto	u3190
  2855  001E00                     u3191:
  2856  001E00  EFF4  F00E         	goto	l197
  2857  001E04                     u3190:
  2858  001E04                     l201:
  2859                           
  2860                           ;ultrasonic.c: 34:         Time2 = TMR1;
  2861  001E04  CFCE F0D8          	movff	4046,_Time2	;volatile
  2862  001E08  CFCF F0D9          	movff	4047,_Time2+1	;volatile
  2863                           
  2864                           ;ultrasonic.c: 35:         TMR1ON=0;
  2865  001E0C  90CD               	bcf	4045,0,c	;volatile
  2866  001E0E                     
  2867                           ;ultrasonic.c: 36:         Distance2 = ((float)Time2)/140.00;
  2868  001E0E  C0D8  F001         	movff	_Time2,___xxtofl@val
  2869  001E12  C0D9  F002         	movff	_Time2+1,___xxtofl@val+1
  2870  001E16  0E00               	movlw	0
  2871  001E18  BE02               	btfsc	(___xxtofl@val+1)^0,7,c
  2872  001E1A  0EFF               	movlw	-1
  2873  001E1C  6E03               	movwf	(___xxtofl@val+2)^0,c
  2874  001E1E  6E04               	movwf	(___xxtofl@val+3)^0,c
  2875  001E20  0E01               	movlw	1
  2876  001E22  EC89  F00C         	call	___xxtofl
  2877  001E26  C001  F00F         	movff	?___xxtofl,___fldiv@b
  2878  001E2A  C002  F010         	movff	?___xxtofl+1,___fldiv@b+1
  2879  001E2E  C003  F011         	movff	?___xxtofl+2,___fldiv@b+2
  2880  001E32  C004  F012         	movff	?___xxtofl+3,___fldiv@b+3
  2881  001E36  0E00               	movlw	0
  2882  001E38  6E13               	movwf	___fldiv@a^0,c
  2883  001E3A  0E00               	movlw	0
  2884  001E3C  6E14               	movwf	(___fldiv@a+1)^0,c
  2885  001E3E  0E0C               	movlw	12
  2886  001E40  6E15               	movwf	(___fldiv@a+2)^0,c
  2887  001E42  0E43               	movlw	67
  2888  001E44  6E16               	movwf	(___fldiv@a+3)^0,c
  2889  001E46  EC82  F007         	call	___fldiv	;wreg free
  2890  001E4A  C00F  F0C2         	movff	?___fldiv,_Distance2
  2891  001E4E  C010  F0C3         	movff	?___fldiv+1,_Distance2+1
  2892  001E52  C011  F0C4         	movff	?___fldiv+2,_Distance2+2
  2893  001E56  C012  F0C5         	movff	?___fldiv+3,_Distance2+3
  2894                           
  2895                           ;ultrasonic.c: 37:         dist2 = dist2 + Distance2;
  2896  001E5A  C0BA  F001         	movff	_dist2,___fladd@b
  2897  001E5E  C0BB  F002         	movff	_dist2+1,___fladd@b+1
  2898  001E62  C0BC  F003         	movff	_dist2+2,___fladd@b+2
  2899  001E66  C0BD  F004         	movff	_dist2+3,___fladd@b+3
  2900  001E6A  C0C2  F005         	movff	_Distance2,___fladd@a
  2901  001E6E  C0C3  F006         	movff	_Distance2+1,___fladd@a+1
  2902  001E72  C0C4  F007         	movff	_Distance2+2,___fladd@a+2
  2903  001E76  C0C5  F008         	movff	_Distance2+3,___fladd@a+3
  2904  001E7A  EC0D  F003         	call	___fladd	;wreg free
  2905  001E7E  C001  F0BA         	movff	?___fladd,_dist2
  2906  001E82  C002  F0BB         	movff	?___fladd+1,_dist2+1
  2907  001E86  C003  F0BC         	movff	?___fladd+2,_dist2+2
  2908  001E8A  C004  F0BD         	movff	?___fladd+3,_dist2+3
  2909  001E8E                     
  2910                           ;ultrasonic.c: 38:     }
  2911  001E8E  0100               	movlb	0	; () banked
  2912  001E90  4BD4               	infsnz	_j& (0+255),f,b
  2913  001E92  2BD5               	incf	(_j+1)& (0+255),f,b
  2914  001E94                     
  2915                           ; BSR set to: 0
  2916  001E94  BFD5               	btfsc	(_j+1)& (0+255),7,b
  2917  001E96  EF56  F00F         	goto	u3201
  2918  001E9A  51D5               	movf	(_j+1)& (0+255),w,b
  2919  001E9C  E109               	bnz	u3200
  2920  001E9E  0E0A               	movlw	10
  2921  001EA0  5DD4               	subwf	_j& (0+255),w,b
  2922  001EA2  A0D8               	btfss	status,0,c
  2923  001EA4  EF56  F00F         	goto	u3201
  2924  001EA8  EF58  F00F         	goto	u3200
  2925  001EAC                     u3201:
  2926  001EAC  EFE6  F00E         	goto	l2986
  2927  001EB0                     u3200:
  2928  001EB0                     
  2929                           ; BSR set to: 0
  2930                           ;ultrasonic.c: 39:     distance2 = dist2/10 *10;
  2931  001EB0  0E00               	movlw	0
  2932  001EB2  6E2C               	movwf	___flmul@a^0,c
  2933  001EB4  0E00               	movlw	0
  2934  001EB6  6E2D               	movwf	(___flmul@a+1)^0,c
  2935  001EB8  0E20               	movlw	32
  2936  001EBA  6E2E               	movwf	(___flmul@a+2)^0,c
  2937  001EBC  0E41               	movlw	65
  2938  001EBE  6E2F               	movwf	(___flmul@a+3)^0,c
  2939  001EC0  0E00               	movlw	0
  2940  001EC2  6E13               	movwf	___fldiv@a^0,c
  2941  001EC4  0E00               	movlw	0
  2942  001EC6  6E14               	movwf	(___fldiv@a+1)^0,c
  2943  001EC8  0E20               	movlw	32
  2944  001ECA  6E15               	movwf	(___fldiv@a+2)^0,c
  2945  001ECC  0E41               	movlw	65
  2946  001ECE  6E16               	movwf	(___fldiv@a+3)^0,c
  2947  001ED0  C0BA  F00F         	movff	_dist2,___fldiv@b
  2948  001ED4  C0BB  F010         	movff	_dist2+1,___fldiv@b+1
  2949  001ED8  C0BC  F011         	movff	_dist2+2,___fldiv@b+2
  2950  001EDC  C0BD  F012         	movff	_dist2+3,___fldiv@b+3
  2951  001EE0  EC82  F007         	call	___fldiv	;wreg free
  2952  001EE4  C00F  F028         	movff	?___fldiv,___flmul@b
  2953  001EE8  C010  F029         	movff	?___fldiv+1,___flmul@b+1
  2954  001EEC  C011  F02A         	movff	?___fldiv+2,___flmul@b+2
  2955  001EF0  C012  F02B         	movff	?___fldiv+3,___flmul@b+3
  2956  001EF4  EC6D  F005         	call	___flmul	;wreg free
  2957  001EF8  C028  F041         	movff	?___flmul,___fltol@f1
  2958  001EFC  C029  F042         	movff	?___flmul+1,___fltol@f1+1
  2959  001F00  C02A  F043         	movff	?___flmul+2,___fltol@f1+2
  2960  001F04  C02B  F044         	movff	?___flmul+3,___fltol@f1+3
  2961  001F08  EC3D  F010         	call	___fltol	;wreg free
  2962  001F0C  C041  F0D0         	movff	?___fltol,_distance2
  2963  001F10  C042  F0D1         	movff	?___fltol+1,_distance2+1
  2964  001F14  0012               	return		;funcret
  2965  001F16                     __end_of_find_distance2:
  2966                           	opt callstack 0
  2967                           
  2968 ;; *************** function _Trigger_Pulse2_10us *****************
  2969 ;; Defined at:
  2970 ;;		line 42 in file "ultrasonic.c"
  2971 ;; Parameters:    Size  Location     Type
  2972 ;;		None
  2973 ;; Auto vars:     Size  Location     Type
  2974 ;;		None
  2975 ;; Return value:  Size  Location     Type
  2976 ;;                  1    wreg      void 
  2977 ;; Registers used:
  2978 ;;		wreg
  2979 ;; Tracked objects:
  2980 ;;		On entry : 0/0
  2981 ;;		On exit  : 0/0
  2982 ;;		Unchanged: 0/0
  2983 ;; Data sizes:     COMRAM   BANK0   BANK1   BANK2   BANK3   BANK4   BANK5
  2984 ;;      Params:         0       0       0       0       0       0       0
  2985 ;;      Locals:         0       0       0       0       0       0       0
  2986 ;;      Temps:          0       0       0       0       0       0       0
  2987 ;;      Totals:         0       0       0       0       0       0       0
  2988 ;;Total ram usage:        0 bytes
  2989 ;; Hardware stack levels used:    1
  2990 ;; This function calls:
  2991 ;;		Nothing
  2992 ;; This function is called by:
  2993 ;;		_find_distance2
  2994 ;; This function uses a non-reentrant model
  2995 ;;
  2996                           
  2997                           	psect	text14
  2998  002644                     __ptext14:
  2999                           	opt callstack 0
  3000  002644                     _Trigger_Pulse2_10us:
  3001                           	opt callstack 29
  3002  002644                     
  3003                           ;ultrasonic.c: 44:     LATD1 = 1;
  3004  002644  828C               	bsf	3980,1,c	;volatile
  3005  002646                     
  3006                           ;ultrasonic.c: 45:     _delay((unsigned long)((10)*(8000000/4000000.0)));
  3007  002646  0E06               	movlw	6
  3008  002648                     u3297:
  3009  002648  2EE8               	decfsz	wreg,f,c
  3010  00264A  D7FE               	bra	u3297
  3011  00264C  D000               	nop2	
  3012  00264E                     
  3013                           ;ultrasonic.c: 46:     LATD1 = 0;
  3014  00264E  928C               	bcf	3980,1,c	;volatile
  3015  002650  0012               	return		;funcret
  3016  002652                     __end_of_Trigger_Pulse2_10us:
  3017                           	opt callstack 0
  3018                           
  3019 ;; *************** function _find_distance *****************
  3020 ;; Defined at:
  3021 ;;		line 3 in file "ultrasonic.c"
  3022 ;; Parameters:    Size  Location     Type
  3023 ;;		None
  3024 ;; Auto vars:     Size  Location     Type
  3025 ;;		None
  3026 ;; Return value:  Size  Location     Type
  3027 ;;                  1    wreg      void 
  3028 ;; Registers used:
  3029 ;;		wreg, status,2, status,0, prodl, prodh, cstack
  3030 ;; Tracked objects:
  3031 ;;		On entry : 0/0
  3032 ;;		On exit  : 0/0
  3033 ;;		Unchanged: 0/0
  3034 ;; Data sizes:     COMRAM   BANK0   BANK1   BANK2   BANK3   BANK4   BANK5
  3035 ;;      Params:         0       0       0       0       0       0       0
  3036 ;;      Locals:         0       0       0       0       0       0       0
  3037 ;;      Temps:          0       0       0       0       0       0       0
  3038 ;;      Totals:         0       0       0       0       0       0       0
  3039 ;;Total ram usage:        0 bytes
  3040 ;; Hardware stack levels used:    1
  3041 ;; Hardware stack levels required when called:    1
  3042 ;; This function calls:
  3043 ;;		_Trigger_Pulse_10us
  3044 ;;		___fladd
  3045 ;;		___fldiv
  3046 ;;		___flmul
  3047 ;;		___fltol
  3048 ;;		___xxtofl
  3049 ;; This function is called by:
  3050 ;;		_main
  3051 ;; This function uses a non-reentrant model
  3052 ;;
  3053                           
  3054                           	psect	text15
  3055  001F16                     __ptext15:
  3056                           	opt callstack 0
  3057  001F16                     _find_distance:
  3058                           	opt callstack 29
  3059  001F16                     
  3060                           ;ultrasonic.c: 4:     dist = 0;
  3061  001F16  0E00               	movlw	0
  3062  001F18  0100               	movlb	0	; () banked
  3063  001F1A  6FBE               	movwf	_dist& (0+255),b
  3064  001F1C  0E00               	movlw	0
  3065  001F1E  6FBF               	movwf	(_dist+1)& (0+255),b
  3066  001F20  0E00               	movlw	0
  3067  001F22  6FC0               	movwf	(_dist+2)& (0+255),b
  3068  001F24  0E00               	movlw	0
  3069  001F26  6FC1               	movwf	(_dist+3)& (0+255),b
  3070                           
  3071                           ;ultrasonic.c: 5:     for(i=0; i<10; i++) {
  3072  001F28  0E00               	movlw	0
  3073  001F2A  6FD7               	movwf	(_i+1)& (0+255),b
  3074  001F2C  0E00               	movlw	0
  3075  001F2E  6FD6               	movwf	_i& (0+255),b
  3076  001F30                     l2952:
  3077                           
  3078                           ; BSR set to: 0
  3079                           ;ultrasonic.c: 6:         Trigger_Pulse_10us();
  3080  001F30  EC29  F013         	call	_Trigger_Pulse_10us	;wreg free
  3081  001F34                     l178:
  3082  001F34  A081               	btfss	129,0,c	;volatile
  3083  001F36  EF9F  F00F         	goto	u3131
  3084  001F3A  EFA1  F00F         	goto	u3130
  3085  001F3E                     u3131:
  3086  001F3E  EF9A  F00F         	goto	l178
  3087  001F42                     u3130:
  3088  001F42                     
  3089                           ;ultrasonic.c: 8:         TMR1=0;
  3090  001F42  0E00               	movlw	0
  3091  001F44  6ECF               	movwf	207,c	;volatile
  3092  001F46  0E00               	movlw	0
  3093  001F48  6ECE               	movwf	206,c	;volatile
  3094  001F4A                     
  3095                           ;ultrasonic.c: 9:         TMR1ON=1;
  3096  001F4A  80CD               	bsf	4045,0,c	;volatile
  3097  001F4C                     l181:
  3098  001F4C  A081               	btfss	129,0,c	;volatile
  3099  001F4E  EFAB  F00F         	goto	u3141
  3100  001F52  EFAD  F00F         	goto	u3140
  3101  001F56                     u3141:
  3102  001F56  EFB4  F00F         	goto	l185
  3103  001F5A                     u3140:
  3104  001F5A  A09E               	btfss	3998,0,c	;volatile
  3105  001F5C  EFB2  F00F         	goto	u3151
  3106  001F60  EFB4  F00F         	goto	u3150
  3107  001F64                     u3151:
  3108  001F64  EFA6  F00F         	goto	l181
  3109  001F68                     u3150:
  3110  001F68                     l185:
  3111                           
  3112                           ;ultrasonic.c: 11:         Time = TMR1;
  3113  001F68  CFCE F0DA          	movff	4046,_Time	;volatile
  3114  001F6C  CFCF F0DB          	movff	4047,_Time+1	;volatile
  3115                           
  3116                           ;ultrasonic.c: 12:         TMR1ON=0;
  3117  001F70  90CD               	bcf	4045,0,c	;volatile
  3118  001F72                     
  3119                           ;ultrasonic.c: 13:         Distance = ((float)Time/140.00);
  3120  001F72  C0DA  F001         	movff	_Time,___xxtofl@val
  3121  001F76  C0DB  F002         	movff	_Time+1,___xxtofl@val+1
  3122  001F7A  0E00               	movlw	0
  3123  001F7C  BE02               	btfsc	(___xxtofl@val+1)^0,7,c
  3124  001F7E  0EFF               	movlw	-1
  3125  001F80  6E03               	movwf	(___xxtofl@val+2)^0,c
  3126  001F82  6E04               	movwf	(___xxtofl@val+3)^0,c
  3127  001F84  0E01               	movlw	1
  3128  001F86  EC89  F00C         	call	___xxtofl
  3129  001F8A  C001  F00F         	movff	?___xxtofl,___fldiv@b
  3130  001F8E  C002  F010         	movff	?___xxtofl+1,___fldiv@b+1
  3131  001F92  C003  F011         	movff	?___xxtofl+2,___fldiv@b+2
  3132  001F96  C004  F012         	movff	?___xxtofl+3,___fldiv@b+3
  3133  001F9A  0E00               	movlw	0
  3134  001F9C  6E13               	movwf	___fldiv@a^0,c
  3135  001F9E  0E00               	movlw	0
  3136  001FA0  6E14               	movwf	(___fldiv@a+1)^0,c
  3137  001FA2  0E0C               	movlw	12
  3138  001FA4  6E15               	movwf	(___fldiv@a+2)^0,c
  3139  001FA6  0E43               	movlw	67
  3140  001FA8  6E16               	movwf	(___fldiv@a+3)^0,c
  3141  001FAA  EC82  F007         	call	___fldiv	;wreg free
  3142  001FAE  C00F  F0C6         	movff	?___fldiv,_Distance
  3143  001FB2  C010  F0C7         	movff	?___fldiv+1,_Distance+1
  3144  001FB6  C011  F0C8         	movff	?___fldiv+2,_Distance+2
  3145  001FBA  C012  F0C9         	movff	?___fldiv+3,_Distance+3
  3146                           
  3147                           ;ultrasonic.c: 14:         dist = dist + Distance;
  3148  001FBE  C0BE  F001         	movff	_dist,___fladd@b
  3149  001FC2  C0BF  F002         	movff	_dist+1,___fladd@b+1
  3150  001FC6  C0C0  F003         	movff	_dist+2,___fladd@b+2
  3151  001FCA  C0C1  F004         	movff	_dist+3,___fladd@b+3
  3152  001FCE  C0C6  F005         	movff	_Distance,___fladd@a
  3153  001FD2  C0C7  F006         	movff	_Distance+1,___fladd@a+1
  3154  001FD6  C0C8  F007         	movff	_Distance+2,___fladd@a+2
  3155  001FDA  C0C9  F008         	movff	_Distance+3,___fladd@a+3
  3156  001FDE  EC0D  F003         	call	___fladd	;wreg free
  3157  001FE2  C001  F0BE         	movff	?___fladd,_dist
  3158  001FE6  C002  F0BF         	movff	?___fladd+1,_dist+1
  3159  001FEA  C003  F0C0         	movff	?___fladd+2,_dist+2
  3160  001FEE  C004  F0C1         	movff	?___fladd+3,_dist+3
  3161  001FF2                     
  3162                           ;ultrasonic.c: 15:     }
  3163  001FF2  0100               	movlb	0	; () banked
  3164  001FF4  4BD6               	infsnz	_i& (0+255),f,b
  3165  001FF6  2BD7               	incf	(_i+1)& (0+255),f,b
  3166  001FF8                     
  3167                           ; BSR set to: 0
  3168  001FF8  BFD7               	btfsc	(_i+1)& (0+255),7,b
  3169  001FFA  EF08  F010         	goto	u3161
  3170  001FFE  51D7               	movf	(_i+1)& (0+255),w,b
  3171  002000  E109               	bnz	u3160
  3172  002002  0E0A               	movlw	10
  3173  002004  5DD6               	subwf	_i& (0+255),w,b
  3174  002006  A0D8               	btfss	status,0,c
  3175  002008  EF08  F010         	goto	u3161
  3176  00200C  EF0A  F010         	goto	u3160
  3177  002010                     u3161:
  3178  002010  EF98  F00F         	goto	l2952
  3179  002014                     u3160:
  3180  002014                     
  3181                           ; BSR set to: 0
  3182                           ;ultrasonic.c: 16:     distance = dist/10 *10;
  3183  002014  0E00               	movlw	0
  3184  002016  6E2C               	movwf	___flmul@a^0,c
  3185  002018  0E00               	movlw	0
  3186  00201A  6E2D               	movwf	(___flmul@a+1)^0,c
  3187  00201C  0E20               	movlw	32
  3188  00201E  6E2E               	movwf	(___flmul@a+2)^0,c
  3189  002020  0E41               	movlw	65
  3190  002022  6E2F               	movwf	(___flmul@a+3)^0,c
  3191  002024  0E00               	movlw	0
  3192  002026  6E13               	movwf	___fldiv@a^0,c
  3193  002028  0E00               	movlw	0
  3194  00202A  6E14               	movwf	(___fldiv@a+1)^0,c
  3195  00202C  0E20               	movlw	32
  3196  00202E  6E15               	movwf	(___fldiv@a+2)^0,c
  3197  002030  0E41               	movlw	65
  3198  002032  6E16               	movwf	(___fldiv@a+3)^0,c
  3199  002034  C0BE  F00F         	movff	_dist,___fldiv@b
  3200  002038  C0BF  F010         	movff	_dist+1,___fldiv@b+1
  3201  00203C  C0C0  F011         	movff	_dist+2,___fldiv@b+2
  3202  002040  C0C1  F012         	movff	_dist+3,___fldiv@b+3
  3203  002044  EC82  F007         	call	___fldiv	;wreg free
  3204  002048  C00F  F028         	movff	?___fldiv,___flmul@b
  3205  00204C  C010  F029         	movff	?___fldiv+1,___flmul@b+1
  3206  002050  C011  F02A         	movff	?___fldiv+2,___flmul@b+2
  3207  002054  C012  F02B         	movff	?___fldiv+3,___flmul@b+3
  3208  002058  EC6D  F005         	call	___flmul	;wreg free
  3209  00205C  C028  F041         	movff	?___flmul,___fltol@f1
  3210  002060  C029  F042         	movff	?___flmul+1,___fltol@f1+1
  3211  002064  C02A  F043         	movff	?___flmul+2,___fltol@f1+2
  3212  002068  C02B  F044         	movff	?___flmul+3,___fltol@f1+3
  3213  00206C  EC3D  F010         	call	___fltol	;wreg free
  3214  002070  C041  F0D2         	movff	?___fltol,_distance
  3215  002074  C042  F0D3         	movff	?___fltol+1,_distance+1
  3216  002078  0012               	return		;funcret
  3217  00207A                     __end_of_find_distance:
  3218                           	opt callstack 0
  3219                           
  3220 ;; *************** function ___xxtofl *****************
  3221 ;; Defined at:
  3222 ;;		line 10 in file "C:\Program Files (x86)\Microchip\xc8\v2.10\pic\sources\c99\common\xxtofl.c"
  3223 ;; Parameters:    Size  Location     Type
  3224 ;;  sign            1    wreg     unsigned char 
  3225 ;;  val             4    0[COMRAM] long 
  3226 ;; Auto vars:     Size  Location     Type
  3227 ;;  sign            1    8[COMRAM] unsigned char 
  3228 ;;  arg             4   10[COMRAM] unsigned long 
  3229 ;;  exp             1    9[COMRAM] unsigned char 
  3230 ;; Return value:  Size  Location     Type
  3231 ;;                  4    0[COMRAM] unsigned char 
  3232 ;; Registers used:
  3233 ;;		wreg, status,2, status,0
  3234 ;; Tracked objects:
  3235 ;;		On entry : 0/0
  3236 ;;		On exit  : 0/0
  3237 ;;		Unchanged: 0/0
  3238 ;; Data sizes:     COMRAM   BANK0   BANK1   BANK2   BANK3   BANK4   BANK5
  3239 ;;      Params:         4       0       0       0       0       0       0
  3240 ;;      Locals:         6       0       0       0       0       0       0
  3241 ;;      Temps:          4       0       0       0       0       0       0
  3242 ;;      Totals:        14       0       0       0       0       0       0
  3243 ;;Total ram usage:       14 bytes
  3244 ;; Hardware stack levels used:    1
  3245 ;; This function calls:
  3246 ;;		Nothing
  3247 ;; This function is called by:
  3248 ;;		_find_distance
  3249 ;;		_find_distance2
  3250 ;; This function uses a non-reentrant model
  3251 ;;
  3252                           
  3253                           	psect	text16
  3254  001912                     __ptext16:
  3255                           	opt callstack 0
  3256  001912                     ___xxtofl:
  3257                           	opt callstack 29
  3258                           
  3259                           ;incstack = 0
  3260                           ;___xxtofl@sign stored from wreg
  3261  001912  6E09               	movwf	___xxtofl@sign^0,c
  3262  001914  5009               	movf	___xxtofl@sign^0,w,c
  3263  001916  B4D8               	btfsc	status,2,c
  3264  001918  EF90  F00C         	goto	u3021
  3265  00191C  EF92  F00C         	goto	u3020
  3266  001920                     u3021:
  3267  001920  EFB4  F00C         	goto	l935
  3268  001924                     u3020:
  3269  001924  BE04               	btfsc	(___xxtofl@val+3)^0,7,c
  3270  001926  EF99  F00C         	goto	u3030
  3271  00192A  EF97  F00C         	goto	u3031
  3272  00192E                     u3031:
  3273  00192E  EFB4  F00C         	goto	l935
  3274  001932                     u3030:
  3275  001932  C001  F005         	movff	___xxtofl@val,??___xxtofl
  3276  001936  C002  F006         	movff	___xxtofl@val+1,??___xxtofl+1
  3277  00193A  C003  F007         	movff	___xxtofl@val+2,??___xxtofl+2
  3278  00193E  C004  F008         	movff	___xxtofl@val+3,??___xxtofl+3
  3279  001942  1E05               	comf	??___xxtofl^0,f,c
  3280  001944  1E06               	comf	(??___xxtofl+1)^0,f,c
  3281  001946  1E07               	comf	(??___xxtofl+2)^0,f,c
  3282  001948  1E08               	comf	(??___xxtofl+3)^0,f,c
  3283  00194A  2A05               	incf	??___xxtofl^0,f,c
  3284  00194C  0E00               	movlw	0
  3285  00194E  2206               	addwfc	(??___xxtofl+1)^0,f,c
  3286  001950  2207               	addwfc	(??___xxtofl+2)^0,f,c
  3287  001952  2208               	addwfc	(??___xxtofl+3)^0,f,c
  3288  001954  C005  F00B         	movff	??___xxtofl,___xxtofl@arg
  3289  001958  C006  F00C         	movff	??___xxtofl+1,___xxtofl@arg+1
  3290  00195C  C007  F00D         	movff	??___xxtofl+2,___xxtofl@arg+2
  3291  001960  C008  F00E         	movff	??___xxtofl+3,___xxtofl@arg+3
  3292  001964  EFBC  F00C         	goto	l2878
  3293  001968                     l935:
  3294  001968  C001  F00B         	movff	___xxtofl@val,___xxtofl@arg
  3295  00196C  C002  F00C         	movff	___xxtofl@val+1,___xxtofl@arg+1
  3296  001970  C003  F00D         	movff	___xxtofl@val+2,___xxtofl@arg+2
  3297  001974  C004  F00E         	movff	___xxtofl@val+3,___xxtofl@arg+3
  3298  001978                     l2878:
  3299  001978  5001               	movf	___xxtofl@val^0,w,c
  3300  00197A  1002               	iorwf	(___xxtofl@val+1)^0,w,c
  3301  00197C  1003               	iorwf	(___xxtofl@val+2)^0,w,c
  3302  00197E  1004               	iorwf	(___xxtofl@val+3)^0,w,c
  3303  001980  A4D8               	btfss	status,2,c
  3304  001982  EFC5  F00C         	goto	u3041
  3305  001986  EFC7  F00C         	goto	u3040
  3306  00198A                     u3041:
  3307  00198A  EFD1  F00C         	goto	l2884
  3308  00198E                     u3040:
  3309  00198E  0E00               	movlw	0
  3310  001990  6E01               	movwf	?___xxtofl^0,c
  3311  001992  0E00               	movlw	0
  3312  001994  6E02               	movwf	(?___xxtofl+1)^0,c
  3313  001996  0E00               	movlw	0
  3314  001998  6E03               	movwf	(?___xxtofl+2)^0,c
  3315  00199A  0E00               	movlw	0
  3316  00199C  6E04               	movwf	(?___xxtofl+3)^0,c
  3317  00199E  EF62  F00D         	goto	l938
  3318  0019A2                     l2884:
  3319  0019A2  0E96               	movlw	150
  3320  0019A4  6E0A               	movwf	___xxtofl@exp^0,c
  3321  0019A6  EFDB  F00C         	goto	l2888
  3322  0019AA                     l2886:
  3323  0019AA  2A0A               	incf	___xxtofl@exp^0,f,c
  3324  0019AC  90D8               	bcf	status,0,c
  3325  0019AE  320E               	rrcf	(___xxtofl@arg+3)^0,f,c
  3326  0019B0  320D               	rrcf	(___xxtofl@arg+2)^0,f,c
  3327  0019B2  320C               	rrcf	(___xxtofl@arg+1)^0,f,c
  3328  0019B4  320B               	rrcf	___xxtofl@arg^0,f,c
  3329  0019B6                     l2888:
  3330  0019B6  0E00               	movlw	0
  3331  0019B8  140B               	andwf	___xxtofl@arg^0,w,c
  3332  0019BA  6E05               	movwf	??___xxtofl^0,c
  3333  0019BC  0E00               	movlw	0
  3334  0019BE  140C               	andwf	(___xxtofl@arg+1)^0,w,c
  3335  0019C0  6E06               	movwf	(??___xxtofl+1)^0,c
  3336  0019C2  0E00               	movlw	0
  3337  0019C4  140D               	andwf	(___xxtofl@arg+2)^0,w,c
  3338  0019C6  6E07               	movwf	(??___xxtofl+2)^0,c
  3339  0019C8  0EFE               	movlw	254
  3340  0019CA  140E               	andwf	(___xxtofl@arg+3)^0,w,c
  3341  0019CC  6E08               	movwf	(??___xxtofl+3)^0,c
  3342  0019CE  5005               	movf	??___xxtofl^0,w,c
  3343  0019D0  1006               	iorwf	(??___xxtofl+1)^0,w,c
  3344  0019D2  1007               	iorwf	(??___xxtofl+2)^0,w,c
  3345  0019D4  1008               	iorwf	(??___xxtofl+3)^0,w,c
  3346  0019D6  A4D8               	btfss	status,2,c
  3347  0019D8  EFF0  F00C         	goto	u3051
  3348  0019DC  EFF2  F00C         	goto	u3050
  3349  0019E0                     u3051:
  3350  0019E0  EFD5  F00C         	goto	l2886
  3351  0019E4                     u3050:
  3352  0019E4  EF00  F00D         	goto	l942
  3353  0019E8                     l2890:
  3354  0019E8  2A0A               	incf	___xxtofl@exp^0,f,c
  3355  0019EA  0E01               	movlw	1
  3356  0019EC  260B               	addwf	___xxtofl@arg^0,f,c
  3357  0019EE  0E00               	movlw	0
  3358  0019F0  220C               	addwfc	(___xxtofl@arg+1)^0,f,c
  3359  0019F2  220D               	addwfc	(___xxtofl@arg+2)^0,f,c
  3360  0019F4  220E               	addwfc	(___xxtofl@arg+3)^0,f,c
  3361  0019F6  90D8               	bcf	status,0,c
  3362  0019F8  320E               	rrcf	(___xxtofl@arg+3)^0,f,c
  3363  0019FA  320D               	rrcf	(___xxtofl@arg+2)^0,f,c
  3364  0019FC  320C               	rrcf	(___xxtofl@arg+1)^0,f,c
  3365  0019FE  320B               	rrcf	___xxtofl@arg^0,f,c
  3366  001A00                     l942:
  3367  001A00  0E00               	movlw	0
  3368  001A02  140B               	andwf	___xxtofl@arg^0,w,c
  3369  001A04  6E05               	movwf	??___xxtofl^0,c
  3370  001A06  0E00               	movlw	0
  3371  001A08  140C               	andwf	(___xxtofl@arg+1)^0,w,c
  3372  001A0A  6E06               	movwf	(??___xxtofl+1)^0,c
  3373  001A0C  0E00               	movlw	0
  3374  001A0E  140D               	andwf	(___xxtofl@arg+2)^0,w,c
  3375  001A10  6E07               	movwf	(??___xxtofl+2)^0,c
  3376  001A12  0EFF               	movlw	255
  3377  001A14  140E               	andwf	(___xxtofl@arg+3)^0,w,c
  3378  001A16  6E08               	movwf	(??___xxtofl+3)^0,c
  3379  001A18  5005               	movf	??___xxtofl^0,w,c
  3380  001A1A  1006               	iorwf	(??___xxtofl+1)^0,w,c
  3381  001A1C  1007               	iorwf	(??___xxtofl+2)^0,w,c
  3382  001A1E  1008               	iorwf	(??___xxtofl+3)^0,w,c
  3383  001A20  A4D8               	btfss	status,2,c
  3384  001A22  EF15  F00D         	goto	u3061
  3385  001A26  EF17  F00D         	goto	u3060
  3386  001A2A                     u3061:
  3387  001A2A  EFF4  F00C         	goto	l2890
  3388  001A2E                     u3060:
  3389  001A2E  EF1F  F00D         	goto	l2898
  3390  001A32                     l2896:
  3391  001A32  060A               	decf	___xxtofl@exp^0,f,c
  3392  001A34  90D8               	bcf	status,0,c
  3393  001A36  360B               	rlcf	___xxtofl@arg^0,f,c
  3394  001A38  360C               	rlcf	(___xxtofl@arg+1)^0,f,c
  3395  001A3A  360D               	rlcf	(___xxtofl@arg+2)^0,f,c
  3396  001A3C  360E               	rlcf	(___xxtofl@arg+3)^0,f,c
  3397  001A3E                     l2898:
  3398  001A3E  BE0D               	btfsc	(___xxtofl@arg+2)^0,7,c
  3399  001A40  EF24  F00D         	goto	u3071
  3400  001A44  EF26  F00D         	goto	u3070
  3401  001A48                     u3071:
  3402  001A48  EF2E  F00D         	goto	l949
  3403  001A4C                     u3070:
  3404  001A4C  0E02               	movlw	2
  3405  001A4E  600A               	cpfslt	___xxtofl@exp^0,c
  3406  001A50  EF2C  F00D         	goto	u3081
  3407  001A54  EF2E  F00D         	goto	u3080
  3408  001A58                     u3081:
  3409  001A58  EF19  F00D         	goto	l2896
  3410  001A5C                     u3080:
  3411  001A5C                     l949:
  3412  001A5C  B00A               	btfsc	___xxtofl@exp^0,0,c
  3413  001A5E  EF33  F00D         	goto	u3091
  3414  001A62  EF35  F00D         	goto	u3090
  3415  001A66                     u3091:
  3416  001A66  EF36  F00D         	goto	l2904
  3417  001A6A                     u3090:
  3418  001A6A  9E0D               	bcf	(___xxtofl@arg+2)^0,7,c
  3419  001A6C                     l2904:
  3420  001A6C  90D8               	bcf	status,0,c
  3421  001A6E  320A               	rrcf	___xxtofl@exp^0,f,c
  3422  001A70  C00A  F005         	movff	___xxtofl@exp,??___xxtofl
  3423  001A74  6A06               	clrf	(??___xxtofl+1)^0,c
  3424  001A76  6A07               	clrf	(??___xxtofl+2)^0,c
  3425  001A78  6A08               	clrf	(??___xxtofl+3)^0,c
  3426  001A7A  C005  F008         	movff	??___xxtofl,??___xxtofl+3
  3427  001A7E  6A07               	clrf	(??___xxtofl+2)^0,c
  3428  001A80  6A06               	clrf	(??___xxtofl+1)^0,c
  3429  001A82  6A05               	clrf	??___xxtofl^0,c
  3430  001A84  5005               	movf	??___xxtofl^0,w,c
  3431  001A86  120B               	iorwf	___xxtofl@arg^0,f,c
  3432  001A88  5006               	movf	(??___xxtofl+1)^0,w,c
  3433  001A8A  120C               	iorwf	(___xxtofl@arg+1)^0,f,c
  3434  001A8C  5007               	movf	(??___xxtofl+2)^0,w,c
  3435  001A8E  120D               	iorwf	(___xxtofl@arg+2)^0,f,c
  3436  001A90  5008               	movf	(??___xxtofl+3)^0,w,c
  3437  001A92  120E               	iorwf	(___xxtofl@arg+3)^0,f,c
  3438  001A94  5009               	movf	___xxtofl@sign^0,w,c
  3439  001A96  B4D8               	btfsc	status,2,c
  3440  001A98  EF50  F00D         	goto	u3101
  3441  001A9C  EF52  F00D         	goto	u3100
  3442  001AA0                     u3101:
  3443  001AA0  EF5A  F00D         	goto	l2914
  3444  001AA4                     u3100:
  3445  001AA4  BE04               	btfsc	(___xxtofl@val+3)^0,7,c
  3446  001AA6  EF59  F00D         	goto	u3110
  3447  001AAA  EF57  F00D         	goto	u3111
  3448  001AAE                     u3111:
  3449  001AAE  EF5A  F00D         	goto	l2914
  3450  001AB2                     u3110:
  3451  001AB2  8E0E               	bsf	(___xxtofl@arg+3)^0,7,c
  3452  001AB4                     l2914:
  3453  001AB4  C00B  F001         	movff	___xxtofl@arg,?___xxtofl
  3454  001AB8  C00C  F002         	movff	___xxtofl@arg+1,?___xxtofl+1
  3455  001ABC  C00D  F003         	movff	___xxtofl@arg+2,?___xxtofl+2
  3456  001AC0  C00E  F004         	movff	___xxtofl@arg+3,?___xxtofl+3
  3457  001AC4                     l938:
  3458  001AC4  0012               	return		;funcret
  3459  001AC6                     __end_of___xxtofl:
  3460                           	opt callstack 0
  3461                           
  3462 ;; *************** function ___fltol *****************
  3463 ;; Defined at:
  3464 ;;		line 43 in file "C:\Program Files (x86)\Microchip\xc8\v2.10\pic\sources\c99\common\fltol.c"
  3465 ;; Parameters:    Size  Location     Type
  3466 ;;  f1              4   64[COMRAM] unsigned char 
  3467 ;; Auto vars:     Size  Location     Type
  3468 ;;  exp1            1   73[COMRAM] unsigned char 
  3469 ;;  sign1           1   72[COMRAM] unsigned char 
  3470 ;; Return value:  Size  Location     Type
  3471 ;;                  4   64[COMRAM] long 
  3472 ;; Registers used:
  3473 ;;		wreg, status,2, status,0
  3474 ;; Tracked objects:
  3475 ;;		On entry : 0/0
  3476 ;;		On exit  : 0/0
  3477 ;;		Unchanged: 0/0
  3478 ;; Data sizes:     COMRAM   BANK0   BANK1   BANK2   BANK3   BANK4   BANK5
  3479 ;;      Params:         4       0       0       0       0       0       0
  3480 ;;      Locals:         2       0       0       0       0       0       0
  3481 ;;      Temps:          4       0       0       0       0       0       0
  3482 ;;      Totals:        10       0       0       0       0       0       0
  3483 ;;Total ram usage:       10 bytes
  3484 ;; Hardware stack levels used:    1
  3485 ;; This function calls:
  3486 ;;		Nothing
  3487 ;; This function is called by:
  3488 ;;		_find_distance
  3489 ;;		_find_distance2
  3490 ;; This function uses a non-reentrant model
  3491 ;;
  3492                           
  3493                           	psect	text17
  3494  00207A                     __ptext17:
  3495                           	opt callstack 0
  3496  00207A                     ___fltol:
  3497                           	opt callstack 29
  3498  00207A  3443               	rlcf	(___fltol@f1+2)^0,w,c
  3499  00207C  3444               	rlcf	(___fltol@f1+3)^0,w,c
  3500  00207E  6E4A               	movwf	___fltol@exp1^0,c
  3501  002080  504A               	movf	___fltol@exp1^0,w,c
  3502  002082  A4D8               	btfss	status,2,c
  3503  002084  EF46  F010         	goto	u2951
  3504  002088  EF48  F010         	goto	u2950
  3505  00208C                     u2951:
  3506  00208C  EF52  F010         	goto	l2834
  3507  002090                     u2950:
  3508  002090                     l2830:
  3509  002090  0E00               	movlw	0
  3510  002092  6E41               	movwf	?___fltol^0,c
  3511  002094  0E00               	movlw	0
  3512  002096  6E42               	movwf	(?___fltol+1)^0,c
  3513  002098  0E00               	movlw	0
  3514  00209A  6E43               	movwf	(?___fltol+2)^0,c
  3515  00209C  0E00               	movlw	0
  3516  00209E  6E44               	movwf	(?___fltol+3)^0,c
  3517  0020A0  EFBF  F010         	goto	l577
  3518  0020A4                     l2834:
  3519  0020A4  C041  F045         	movff	___fltol@f1,??___fltol
  3520  0020A8  C042  F046         	movff	___fltol@f1+1,??___fltol+1
  3521  0020AC  C043  F047         	movff	___fltol@f1+2,??___fltol+2
  3522  0020B0  C044  F048         	movff	___fltol@f1+3,??___fltol+3
  3523  0020B4  0E20               	movlw	32
  3524  0020B6  EF62  F010         	goto	u2960
  3525  0020BA                     u2965:
  3526  0020BA  90D8               	bcf	status,0,c
  3527  0020BC  3248               	rrcf	(??___fltol+3)^0,f,c
  3528  0020BE  3247               	rrcf	(??___fltol+2)^0,f,c
  3529  0020C0  3246               	rrcf	(??___fltol+1)^0,f,c
  3530  0020C2  3245               	rrcf	??___fltol^0,f,c
  3531  0020C4                     u2960:
  3532  0020C4  2EE8               	decfsz	wreg,f,c
  3533  0020C6  EF5D  F010         	goto	u2965
  3534  0020CA  5045               	movf	??___fltol^0,w,c
  3535  0020CC  6E49               	movwf	___fltol@sign1^0,c
  3536  0020CE  8E43               	bsf	(___fltol@f1+2)^0,7,c
  3537  0020D0  0EFF               	movlw	255
  3538  0020D2  1641               	andwf	___fltol@f1^0,f,c
  3539  0020D4  0EFF               	movlw	255
  3540  0020D6  1642               	andwf	(___fltol@f1+1)^0,f,c
  3541  0020D8  0EFF               	movlw	255
  3542  0020DA  1643               	andwf	(___fltol@f1+2)^0,f,c
  3543  0020DC  0E00               	movlw	0
  3544  0020DE  1644               	andwf	(___fltol@f1+3)^0,f,c
  3545  0020E0  0E96               	movlw	150
  3546  0020E2  5E4A               	subwf	___fltol@exp1^0,f,c
  3547  0020E4  BE4A               	btfsc	___fltol@exp1^0,7,c
  3548  0020E6  EF79  F010         	goto	u2970
  3549  0020EA  EF77  F010         	goto	u2971
  3550  0020EE                     u2971:
  3551  0020EE  EF8F  F010         	goto	l2854
  3552  0020F2                     u2970:
  3553  0020F2  504A               	movf	___fltol@exp1^0,w,c
  3554  0020F4  0A80               	xorlw	128
  3555  0020F6  0F97               	addlw	151
  3556  0020F8  B0D8               	btfsc	status,0,c
  3557  0020FA  EF81  F010         	goto	u2981
  3558  0020FE  EF83  F010         	goto	u2980
  3559  002102                     u2981:
  3560  002102  EF85  F010         	goto	l2850
  3561  002106                     u2980:
  3562  002106  EF48  F010         	goto	l2830
  3563  00210A                     l2850:
  3564  00210A  90D8               	bcf	status,0,c
  3565  00210C  3244               	rrcf	(___fltol@f1+3)^0,f,c
  3566  00210E  3243               	rrcf	(___fltol@f1+2)^0,f,c
  3567  002110  3242               	rrcf	(___fltol@f1+1)^0,f,c
  3568  002112  3241               	rrcf	___fltol@f1^0,f,c
  3569  002114  3E4A               	incfsz	___fltol@exp1^0,f,c
  3570  002116  EF85  F010         	goto	l2850
  3571  00211A  EFA7  F010         	goto	l2864
  3572  00211E                     l2854:
  3573  00211E  0E1F               	movlw	31
  3574  002120  644A               	cpfsgt	___fltol@exp1^0,c
  3575  002122  EF95  F010         	goto	u2991
  3576  002126  EF97  F010         	goto	u2990
  3577  00212A                     u2991:
  3578  00212A  EF9F  F010         	goto	l2862
  3579  00212E                     u2990:
  3580  00212E  EF48  F010         	goto	l2830
  3581  002132                     l2860:
  3582  002132  90D8               	bcf	status,0,c
  3583  002134  3641               	rlcf	___fltol@f1^0,f,c
  3584  002136  3642               	rlcf	(___fltol@f1+1)^0,f,c
  3585  002138  3643               	rlcf	(___fltol@f1+2)^0,f,c
  3586  00213A  3644               	rlcf	(___fltol@f1+3)^0,f,c
  3587  00213C  064A               	decf	___fltol@exp1^0,f,c
  3588  00213E                     l2862:
  3589  00213E  504A               	movf	___fltol@exp1^0,w,c
  3590  002140  A4D8               	btfss	status,2,c
  3591  002142  EFA5  F010         	goto	u3001
  3592  002146  EFA7  F010         	goto	u3000
  3593  00214A                     u3001:
  3594  00214A  EF99  F010         	goto	l2860
  3595  00214E                     u3000:
  3596  00214E                     l2864:
  3597  00214E  5049               	movf	___fltol@sign1^0,w,c
  3598  002150  B4D8               	btfsc	status,2,c
  3599  002152  EFAD  F010         	goto	u3011
  3600  002156  EFAF  F010         	goto	u3010
  3601  00215A                     u3011:
  3602  00215A  EFB7  F010         	goto	l2868
  3603  00215E                     u3010:
  3604  00215E  1E44               	comf	(___fltol@f1+3)^0,f,c
  3605  002160  1E43               	comf	(___fltol@f1+2)^0,f,c
  3606  002162  1E42               	comf	(___fltol@f1+1)^0,f,c
  3607  002164  6C41               	negf	___fltol@f1^0,c
  3608  002166  0E00               	movlw	0
  3609  002168  2242               	addwfc	(___fltol@f1+1)^0,f,c
  3610  00216A  2243               	addwfc	(___fltol@f1+2)^0,f,c
  3611  00216C  2244               	addwfc	(___fltol@f1+3)^0,f,c
  3612  00216E                     l2868:
  3613  00216E  C041  F041         	movff	___fltol@f1,?___fltol
  3614  002172  C042  F042         	movff	___fltol@f1+1,?___fltol+1
  3615  002176  C043  F043         	movff	___fltol@f1+2,?___fltol+2
  3616  00217A  C044  F044         	movff	___fltol@f1+3,?___fltol+3
  3617  00217E                     l577:
  3618  00217E  0012               	return		;funcret
  3619  002180                     __end_of___fltol:
  3620                           	opt callstack 0
  3621                           
  3622 ;; *************** function ___flmul *****************
  3623 ;; Defined at:
  3624 ;;		line 8 in file "C:\Program Files (x86)\Microchip\xc8\v2.10\pic\sources\c99\common\sprcmul.c"
  3625 ;; Parameters:    Size  Location     Type
  3626 ;;  b               4   39[COMRAM] long 
  3627 ;;  a               4   43[COMRAM] long 
  3628 ;; Auto vars:     Size  Location     Type
  3629 ;;  prod            4   58[COMRAM] struct .
  3630 ;;  grs             4   52[COMRAM] unsigned long 
  3631 ;;  temp            2   62[COMRAM] struct .
  3632 ;;  bexp            1   57[COMRAM] unsigned char 
  3633 ;;  aexp            1   56[COMRAM] unsigned char 
  3634 ;;  sign            1   51[COMRAM] unsigned char 
  3635 ;; Return value:  Size  Location     Type
  3636 ;;                  4   39[COMRAM] unsigned char 
  3637 ;; Registers used:
  3638 ;;		wreg, status,2, status,0, prodl, prodh
  3639 ;; Tracked objects:
  3640 ;;		On entry : 0/0
  3641 ;;		On exit  : 0/0
  3642 ;;		Unchanged: 0/0
  3643 ;; Data sizes:     COMRAM   BANK0   BANK1   BANK2   BANK3   BANK4   BANK5
  3644 ;;      Params:         8       0       0       0       0       0       0
  3645 ;;      Locals:        13       0       0       0       0       0       0
  3646 ;;      Temps:          4       0       0       0       0       0       0
  3647 ;;      Totals:        25       0       0       0       0       0       0
  3648 ;;Total ram usage:       25 bytes
  3649 ;; Hardware stack levels used:    1
  3650 ;; This function calls:
  3651 ;;		Nothing
  3652 ;; This function is called by:
  3653 ;;		_find_distance
  3654 ;;		_find_distance2
  3655 ;; This function uses a non-reentrant model
  3656 ;;
  3657                           
  3658                           	psect	text18
  3659  000ADA                     __ptext18:
  3660                           	opt callstack 0
  3661  000ADA                     ___flmul:
  3662                           	opt callstack 29
  3663  000ADA  502B               	movf	(___flmul@b+3)^0,w,c
  3664  000ADC  0B80               	andlw	128
  3665  000ADE  6E34               	movwf	___flmul@sign^0,c
  3666  000AE0  502B               	movf	(___flmul@b+3)^0,w,c
  3667  000AE2  242B               	addwf	(___flmul@b+3)^0,w,c
  3668  000AE4  6E3A               	movwf	___flmul@bexp^0,c
  3669  000AE6  AE2A               	btfss	(___flmul@b+2)^0,7,c
  3670  000AE8  EF78  F005         	goto	u2761
  3671  000AEC  EF7A  F005         	goto	u2760
  3672  000AF0                     u2761:
  3673  000AF0  EF7B  F005         	goto	l2704
  3674  000AF4                     u2760:
  3675  000AF4  803A               	bsf	___flmul@bexp^0,0,c
  3676  000AF6                     l2704:
  3677  000AF6  503A               	movf	___flmul@bexp^0,w,c
  3678  000AF8  B4D8               	btfsc	status,2,c
  3679  000AFA  EF81  F005         	goto	u2771
  3680  000AFE  EF83  F005         	goto	u2770
  3681  000B02                     u2771:
  3682  000B02  EF96  F005         	goto	l2712
  3683  000B06                     u2770:
  3684  000B06  283A               	incf	___flmul@bexp^0,w,c
  3685  000B08  A4D8               	btfss	status,2,c
  3686  000B0A  EF89  F005         	goto	u2781
  3687  000B0E  EF8B  F005         	goto	u2780
  3688  000B12                     u2781:
  3689  000B12  EF93  F005         	goto	l2710
  3690  000B16                     u2780:
  3691  000B16  0E00               	movlw	0
  3692  000B18  6E28               	movwf	___flmul@b^0,c
  3693  000B1A  0E00               	movlw	0
  3694  000B1C  6E29               	movwf	(___flmul@b+1)^0,c
  3695  000B1E  0E00               	movlw	0
  3696  000B20  6E2A               	movwf	(___flmul@b+2)^0,c
  3697  000B22  0E00               	movlw	0
  3698  000B24  6E2B               	movwf	(___flmul@b+3)^0,c
  3699  000B26                     l2710:
  3700  000B26  8E2A               	bsf	(___flmul@b+2)^0,7,c
  3701  000B28  EF9E  F005         	goto	l2714
  3702  000B2C                     l2712:
  3703  000B2C  0E00               	movlw	0
  3704  000B2E  6E28               	movwf	___flmul@b^0,c
  3705  000B30  0E00               	movlw	0
  3706  000B32  6E29               	movwf	(___flmul@b+1)^0,c
  3707  000B34  0E00               	movlw	0
  3708  000B36  6E2A               	movwf	(___flmul@b+2)^0,c
  3709  000B38  0E00               	movlw	0
  3710  000B3A  6E2B               	movwf	(___flmul@b+3)^0,c
  3711  000B3C                     l2714:
  3712  000B3C  502F               	movf	(___flmul@a+3)^0,w,c
  3713  000B3E  0B80               	andlw	128
  3714  000B40  1A34               	xorwf	___flmul@sign^0,f,c
  3715  000B42  502F               	movf	(___flmul@a+3)^0,w,c
  3716  000B44  242F               	addwf	(___flmul@a+3)^0,w,c
  3717  000B46  6E39               	movwf	___flmul@aexp^0,c
  3718  000B48  AE2E               	btfss	(___flmul@a+2)^0,7,c
  3719  000B4A  EFA9  F005         	goto	u2791
  3720  000B4E  EFAB  F005         	goto	u2790
  3721  000B52                     u2791:
  3722  000B52  EFAC  F005         	goto	l2722
  3723  000B56                     u2790:
  3724  000B56  8039               	bsf	___flmul@aexp^0,0,c
  3725  000B58                     l2722:
  3726  000B58  5039               	movf	___flmul@aexp^0,w,c
  3727  000B5A  B4D8               	btfsc	status,2,c
  3728  000B5C  EFB2  F005         	goto	u2801
  3729  000B60  EFB4  F005         	goto	u2800
  3730  000B64                     u2801:
  3731  000B64  EFC7  F005         	goto	l2730
  3732  000B68                     u2800:
  3733  000B68  2839               	incf	___flmul@aexp^0,w,c
  3734  000B6A  A4D8               	btfss	status,2,c
  3735  000B6C  EFBA  F005         	goto	u2811
  3736  000B70  EFBC  F005         	goto	u2810
  3737  000B74                     u2811:
  3738  000B74  EFC4  F005         	goto	l2728
  3739  000B78                     u2810:
  3740  000B78  0E00               	movlw	0
  3741  000B7A  6E2C               	movwf	___flmul@a^0,c
  3742  000B7C  0E00               	movlw	0
  3743  000B7E  6E2D               	movwf	(___flmul@a+1)^0,c
  3744  000B80  0E00               	movlw	0
  3745  000B82  6E2E               	movwf	(___flmul@a+2)^0,c
  3746  000B84  0E00               	movlw	0
  3747  000B86  6E2F               	movwf	(___flmul@a+3)^0,c
  3748  000B88                     l2728:
  3749  000B88  8E2E               	bsf	(___flmul@a+2)^0,7,c
  3750  000B8A  EFCF  F005         	goto	l894
  3751  000B8E                     l2730:
  3752  000B8E  0E00               	movlw	0
  3753  000B90  6E2C               	movwf	___flmul@a^0,c
  3754  000B92  0E00               	movlw	0
  3755  000B94  6E2D               	movwf	(___flmul@a+1)^0,c
  3756  000B96  0E00               	movlw	0
  3757  000B98  6E2E               	movwf	(___flmul@a+2)^0,c
  3758  000B9A  0E00               	movlw	0
  3759  000B9C  6E2F               	movwf	(___flmul@a+3)^0,c
  3760  000B9E                     l894:
  3761  000B9E  5039               	movf	___flmul@aexp^0,w,c
  3762  000BA0  B4D8               	btfsc	status,2,c
  3763  000BA2  EFD5  F005         	goto	u2821
  3764  000BA6  EFD7  F005         	goto	u2820
  3765  000BAA                     u2821:
  3766  000BAA  EFDF  F005         	goto	l2734
  3767  000BAE                     u2820:
  3768  000BAE  503A               	movf	___flmul@bexp^0,w,c
  3769  000BB0  A4D8               	btfss	status,2,c
  3770  000BB2  EFDD  F005         	goto	u2831
  3771  000BB6  EFDF  F005         	goto	u2830
  3772  000BBA                     u2831:
  3773  000BBA  EFE9  F005         	goto	l2738
  3774  000BBE                     u2830:
  3775  000BBE                     l2734:
  3776  000BBE  0E00               	movlw	0
  3777  000BC0  6E28               	movwf	?___flmul^0,c
  3778  000BC2  0E00               	movlw	0
  3779  000BC4  6E29               	movwf	(?___flmul+1)^0,c
  3780  000BC6  0E00               	movlw	0
  3781  000BC8  6E2A               	movwf	(?___flmul+2)^0,c
  3782  000BCA  0E00               	movlw	0
  3783  000BCC  6E2B               	movwf	(?___flmul+3)^0,c
  3784  000BCE  EF81  F007         	goto	l898
  3785  000BD2                     l2738:
  3786  000BD2  502E               	movf	(___flmul@a+2)^0,w,c
  3787  000BD4  0228               	mulwf	___flmul@b^0,c
  3788  000BD6  CFF3 F03F          	movff	prodl,___flmul@temp
  3789  000BDA  CFF4 F040          	movff	prodh,___flmul@temp+1
  3790  000BDE  503F               	movf	___flmul@temp^0,w,c
  3791  000BE0  6E35               	movwf	___flmul@grs^0,c
  3792  000BE2  6A36               	clrf	(___flmul@grs+1)^0,c
  3793  000BE4  6A37               	clrf	(___flmul@grs+2)^0,c
  3794  000BE6  6A38               	clrf	(___flmul@grs+3)^0,c
  3795  000BE8  5040               	movf	(___flmul@temp+1)^0,w,c
  3796  000BEA  6E3B               	movwf	___flmul@prod^0,c
  3797  000BEC  6A3C               	clrf	(___flmul@prod+1)^0,c
  3798  000BEE  6A3D               	clrf	(___flmul@prod+2)^0,c
  3799  000BF0  6A3E               	clrf	(___flmul@prod+3)^0,c
  3800  000BF2  502D               	movf	(___flmul@a+1)^0,w,c
  3801  000BF4  0229               	mulwf	(___flmul@b+1)^0,c
  3802  000BF6  CFF3 F03F          	movff	prodl,___flmul@temp
  3803  000BFA  CFF4 F040          	movff	prodh,___flmul@temp+1
  3804  000BFE  503F               	movf	___flmul@temp^0,w,c
  3805  000C00  2635               	addwf	___flmul@grs^0,f,c
  3806  000C02  0E00               	movlw	0
  3807  000C04  2236               	addwfc	(___flmul@grs+1)^0,f,c
  3808  000C06  2237               	addwfc	(___flmul@grs+2)^0,f,c
  3809  000C08  2238               	addwfc	(___flmul@grs+3)^0,f,c
  3810  000C0A  5040               	movf	(___flmul@temp+1)^0,w,c
  3811  000C0C  263B               	addwf	___flmul@prod^0,f,c
  3812  000C0E  0E00               	movlw	0
  3813  000C10  223C               	addwfc	(___flmul@prod+1)^0,f,c
  3814  000C12  223D               	addwfc	(___flmul@prod+2)^0,f,c
  3815  000C14  223E               	addwfc	(___flmul@prod+3)^0,f,c
  3816  000C16  502C               	movf	___flmul@a^0,w,c
  3817  000C18  022A               	mulwf	(___flmul@b+2)^0,c
  3818  000C1A  CFF3 F03F          	movff	prodl,___flmul@temp
  3819  000C1E  CFF4 F040          	movff	prodh,___flmul@temp+1
  3820  000C22  503F               	movf	___flmul@temp^0,w,c
  3821  000C24  2635               	addwf	___flmul@grs^0,f,c
  3822  000C26  0E00               	movlw	0
  3823  000C28  2236               	addwfc	(___flmul@grs+1)^0,f,c
  3824  000C2A  2237               	addwfc	(___flmul@grs+2)^0,f,c
  3825  000C2C  2238               	addwfc	(___flmul@grs+3)^0,f,c
  3826  000C2E  5040               	movf	(___flmul@temp+1)^0,w,c
  3827  000C30  263B               	addwf	___flmul@prod^0,f,c
  3828  000C32  0E00               	movlw	0
  3829  000C34  223C               	addwfc	(___flmul@prod+1)^0,f,c
  3830  000C36  223D               	addwfc	(___flmul@prod+2)^0,f,c
  3831  000C38  223E               	addwfc	(___flmul@prod+3)^0,f,c
  3832  000C3A  C037  F038         	movff	___flmul@grs+2,___flmul@grs+3
  3833  000C3E  C036  F037         	movff	___flmul@grs+1,___flmul@grs+2
  3834  000C42  C035  F036         	movff	___flmul@grs,___flmul@grs+1
  3835  000C46  6A35               	clrf	___flmul@grs^0,c
  3836  000C48  502C               	movf	___flmul@a^0,w,c
  3837  000C4A  0229               	mulwf	(___flmul@b+1)^0,c
  3838  000C4C  CFF3 F03F          	movff	prodl,___flmul@temp
  3839  000C50  CFF4 F040          	movff	prodh,___flmul@temp+1
  3840  000C54  503F               	movf	___flmul@temp^0,w,c
  3841  000C56  2635               	addwf	___flmul@grs^0,f,c
  3842  000C58  5040               	movf	(___flmul@temp+1)^0,w,c
  3843  000C5A  2236               	addwfc	(___flmul@grs+1)^0,f,c
  3844  000C5C  0E00               	movlw	0
  3845  000C5E  2237               	addwfc	(___flmul@grs+2)^0,f,c
  3846  000C60  0E00               	movlw	0
  3847  000C62  2238               	addwfc	(___flmul@grs+3)^0,f,c
  3848  000C64  502D               	movf	(___flmul@a+1)^0,w,c
  3849  000C66  0228               	mulwf	___flmul@b^0,c
  3850  000C68  CFF3 F03F          	movff	prodl,___flmul@temp
  3851  000C6C  CFF4 F040          	movff	prodh,___flmul@temp+1
  3852  000C70  503F               	movf	___flmul@temp^0,w,c
  3853  000C72  2635               	addwf	___flmul@grs^0,f,c
  3854  000C74  5040               	movf	(___flmul@temp+1)^0,w,c
  3855  000C76  2236               	addwfc	(___flmul@grs+1)^0,f,c
  3856  000C78  0E00               	movlw	0
  3857  000C7A  2237               	addwfc	(___flmul@grs+2)^0,f,c
  3858  000C7C  0E00               	movlw	0
  3859  000C7E  2238               	addwfc	(___flmul@grs+3)^0,f,c
  3860  000C80  C037  F038         	movff	___flmul@grs+2,___flmul@grs+3
  3861  000C84  C036  F037         	movff	___flmul@grs+1,___flmul@grs+2
  3862  000C88  C035  F036         	movff	___flmul@grs,___flmul@grs+1
  3863  000C8C  6A35               	clrf	___flmul@grs^0,c
  3864  000C8E  502C               	movf	___flmul@a^0,w,c
  3865  000C90  0228               	mulwf	___flmul@b^0,c
  3866  000C92  CFF3 F03F          	movff	prodl,___flmul@temp
  3867  000C96  CFF4 F040          	movff	prodh,___flmul@temp+1
  3868  000C9A  503F               	movf	___flmul@temp^0,w,c
  3869  000C9C  2635               	addwf	___flmul@grs^0,f,c
  3870  000C9E  5040               	movf	(___flmul@temp+1)^0,w,c
  3871  000CA0  2236               	addwfc	(___flmul@grs+1)^0,f,c
  3872  000CA2  0E00               	movlw	0
  3873  000CA4  2237               	addwfc	(___flmul@grs+2)^0,f,c
  3874  000CA6  0E00               	movlw	0
  3875  000CA8  2238               	addwfc	(___flmul@grs+3)^0,f,c
  3876  000CAA  502E               	movf	(___flmul@a+2)^0,w,c
  3877  000CAC  0229               	mulwf	(___flmul@b+1)^0,c
  3878  000CAE  CFF3 F03F          	movff	prodl,___flmul@temp
  3879  000CB2  CFF4 F040          	movff	prodh,___flmul@temp+1
  3880  000CB6  503F               	movf	___flmul@temp^0,w,c
  3881  000CB8  263B               	addwf	___flmul@prod^0,f,c
  3882  000CBA  5040               	movf	(___flmul@temp+1)^0,w,c
  3883  000CBC  223C               	addwfc	(___flmul@prod+1)^0,f,c
  3884  000CBE  0E00               	movlw	0
  3885  000CC0  223D               	addwfc	(___flmul@prod+2)^0,f,c
  3886  000CC2  0E00               	movlw	0
  3887  000CC4  223E               	addwfc	(___flmul@prod+3)^0,f,c
  3888  000CC6  502D               	movf	(___flmul@a+1)^0,w,c
  3889  000CC8  022A               	mulwf	(___flmul@b+2)^0,c
  3890  000CCA  CFF3 F03F          	movff	prodl,___flmul@temp
  3891  000CCE  CFF4 F040          	movff	prodh,___flmul@temp+1
  3892  000CD2  503F               	movf	___flmul@temp^0,w,c
  3893  000CD4  263B               	addwf	___flmul@prod^0,f,c
  3894  000CD6  5040               	movf	(___flmul@temp+1)^0,w,c
  3895  000CD8  223C               	addwfc	(___flmul@prod+1)^0,f,c
  3896  000CDA  0E00               	movlw	0
  3897  000CDC  223D               	addwfc	(___flmul@prod+2)^0,f,c
  3898  000CDE  0E00               	movlw	0
  3899  000CE0  223E               	addwfc	(___flmul@prod+3)^0,f,c
  3900  000CE2  502E               	movf	(___flmul@a+2)^0,w,c
  3901  000CE4  022A               	mulwf	(___flmul@b+2)^0,c
  3902  000CE6  CFF3 F03F          	movff	prodl,___flmul@temp
  3903  000CEA  CFF4 F040          	movff	prodh,___flmul@temp+1
  3904  000CEE  503F               	movf	___flmul@temp^0,w,c
  3905  000CF0  6E30               	movwf	??___flmul^0,c
  3906  000CF2  5040               	movf	(___flmul@temp+1)^0,w,c
  3907  000CF4  6E31               	movwf	(??___flmul+1)^0,c
  3908  000CF6  6A32               	clrf	(??___flmul+2)^0,c
  3909  000CF8  6A33               	clrf	(??___flmul+3)^0,c
  3910  000CFA  C032  F033         	movff	??___flmul+2,??___flmul+3
  3911  000CFE  C031  F032         	movff	??___flmul+1,??___flmul+2
  3912  000D02  C030  F031         	movff	??___flmul,??___flmul+1
  3913  000D06  6A30               	clrf	??___flmul^0,c
  3914  000D08  5030               	movf	??___flmul^0,w,c
  3915  000D0A  263B               	addwf	___flmul@prod^0,f,c
  3916  000D0C  5031               	movf	(??___flmul+1)^0,w,c
  3917  000D0E  223C               	addwfc	(___flmul@prod+1)^0,f,c
  3918  000D10  5032               	movf	(??___flmul+2)^0,w,c
  3919  000D12  223D               	addwfc	(___flmul@prod+2)^0,f,c
  3920  000D14  5033               	movf	(??___flmul+3)^0,w,c
  3921  000D16  223E               	addwfc	(___flmul@prod+3)^0,f,c
  3922  000D18  C035  F030         	movff	___flmul@grs,??___flmul
  3923  000D1C  C036  F031         	movff	___flmul@grs+1,??___flmul+1
  3924  000D20  C037  F032         	movff	___flmul@grs+2,??___flmul+2
  3925  000D24  C038  F033         	movff	___flmul@grs+3,??___flmul+3
  3926  000D28  0E19               	movlw	25
  3927  000D2A  EF9C  F006         	goto	u2840
  3928  000D2E                     u2845:
  3929  000D2E  90D8               	bcf	status,0,c
  3930  000D30  3233               	rrcf	(??___flmul+3)^0,f,c
  3931  000D32  3232               	rrcf	(??___flmul+2)^0,f,c
  3932  000D34  3231               	rrcf	(??___flmul+1)^0,f,c
  3933  000D36  3230               	rrcf	??___flmul^0,f,c
  3934  000D38                     u2840:
  3935  000D38  2EE8               	decfsz	wreg,f,c
  3936  000D3A  EF97  F006         	goto	u2845
  3937  000D3E  5030               	movf	??___flmul^0,w,c
  3938  000D40  263B               	addwf	___flmul@prod^0,f,c
  3939  000D42  5031               	movf	(??___flmul+1)^0,w,c
  3940  000D44  223C               	addwfc	(___flmul@prod+1)^0,f,c
  3941  000D46  5032               	movf	(??___flmul+2)^0,w,c
  3942  000D48  223D               	addwfc	(___flmul@prod+2)^0,f,c
  3943  000D4A  5033               	movf	(??___flmul+3)^0,w,c
  3944  000D4C  223E               	addwfc	(___flmul@prod+3)^0,f,c
  3945  000D4E  C037  F038         	movff	___flmul@grs+2,___flmul@grs+3
  3946  000D52  C036  F037         	movff	___flmul@grs+1,___flmul@grs+2
  3947  000D56  C035  F036         	movff	___flmul@grs,___flmul@grs+1
  3948  000D5A  6A35               	clrf	___flmul@grs^0,c
  3949  000D5C  5039               	movf	___flmul@aexp^0,w,c
  3950  000D5E  C03A  F030         	movff	___flmul@bexp,??___flmul
  3951  000D62  6A31               	clrf	(??___flmul+1)^0,c
  3952  000D64  2630               	addwf	??___flmul^0,f,c
  3953  000D66  0E00               	movlw	0
  3954  000D68  2231               	addwfc	(??___flmul+1)^0,f,c
  3955  000D6A  0E82               	movlw	130
  3956  000D6C  2430               	addwf	??___flmul^0,w,c
  3957  000D6E  6E3F               	movwf	___flmul@temp^0,c
  3958  000D70  0EFF               	movlw	255
  3959  000D72  2031               	addwfc	(??___flmul+1)^0,w,c
  3960  000D74  6E40               	movwf	(___flmul@temp+1)^0,c
  3961  000D76  EFD2  F006         	goto	l2786
  3962  000D7A                     l2780:
  3963  000D7A  90D8               	bcf	status,0,c
  3964  000D7C  363B               	rlcf	___flmul@prod^0,f,c
  3965  000D7E  363C               	rlcf	(___flmul@prod+1)^0,f,c
  3966  000D80  363D               	rlcf	(___flmul@prod+2)^0,f,c
  3967  000D82  363E               	rlcf	(___flmul@prod+3)^0,f,c
  3968  000D84  AE38               	btfss	(___flmul@grs+3)^0,7,c
  3969  000D86  EFC7  F006         	goto	u2851
  3970  000D8A  EFC9  F006         	goto	u2850
  3971  000D8E                     u2851:
  3972  000D8E  EFCA  F006         	goto	l901
  3973  000D92                     u2850:
  3974  000D92  803B               	bsf	___flmul@prod^0,0,c
  3975  000D94                     l901:
  3976  000D94  90D8               	bcf	status,0,c
  3977  000D96  3635               	rlcf	___flmul@grs^0,f,c
  3978  000D98  3636               	rlcf	(___flmul@grs+1)^0,f,c
  3979  000D9A  3637               	rlcf	(___flmul@grs+2)^0,f,c
  3980  000D9C  3638               	rlcf	(___flmul@grs+3)^0,f,c
  3981  000D9E  063F               	decf	___flmul@temp^0,f,c
  3982  000DA0  A0D8               	btfss	status,0,c
  3983  000DA2  0640               	decf	(___flmul@temp+1)^0,f,c
  3984  000DA4                     l2786:
  3985  000DA4  AE3D               	btfss	(___flmul@prod+2)^0,7,c
  3986  000DA6  EFD7  F006         	goto	u2861
  3987  000DAA  EFD9  F006         	goto	u2860
  3988  000DAE                     u2861:
  3989  000DAE  EFBD  F006         	goto	l2780
  3990  000DB2                     u2860:
  3991  000DB2  0E00               	movlw	0
  3992  000DB4  6E39               	movwf	___flmul@aexp^0,c
  3993  000DB6  AE38               	btfss	(___flmul@grs+3)^0,7,c
  3994  000DB8  EFE0  F006         	goto	u2871
  3995  000DBC  EFE2  F006         	goto	u2870
  3996  000DC0                     u2871:
  3997  000DC0  EF06  F007         	goto	l903
  3998  000DC4                     u2870:
  3999  000DC4  0EFF               	movlw	255
  4000  000DC6  1435               	andwf	___flmul@grs^0,w,c
  4001  000DC8  6E30               	movwf	??___flmul^0,c
  4002  000DCA  0EFF               	movlw	255
  4003  000DCC  1436               	andwf	(___flmul@grs+1)^0,w,c
  4004  000DCE  6E31               	movwf	(??___flmul+1)^0,c
  4005  000DD0  0EFF               	movlw	255
  4006  000DD2  1437               	andwf	(___flmul@grs+2)^0,w,c
  4007  000DD4  6E32               	movwf	(??___flmul+2)^0,c
  4008  000DD6  0E7F               	movlw	127
  4009  000DD8  1438               	andwf	(___flmul@grs+3)^0,w,c
  4010  000DDA  6E33               	movwf	(??___flmul+3)^0,c
  4011  000DDC  5030               	movf	??___flmul^0,w,c
  4012  000DDE  1031               	iorwf	(??___flmul+1)^0,w,c
  4013  000DE0  1032               	iorwf	(??___flmul+2)^0,w,c
  4014  000DE2  1033               	iorwf	(??___flmul+3)^0,w,c
  4015  000DE4  B4D8               	btfsc	status,2,c
  4016  000DE6  EFF7  F006         	goto	u2881
  4017  000DEA  EFF9  F006         	goto	u2880
  4018  000DEE                     u2881:
  4019  000DEE  EFFD  F006         	goto	l904
  4020  000DF2                     u2880:
  4021  000DF2                     l2794:
  4022  000DF2  0E01               	movlw	1
  4023  000DF4  6E39               	movwf	___flmul@aexp^0,c
  4024  000DF6  EF06  F007         	goto	l903
  4025  000DFA                     l904:
  4026  000DFA  A03B               	btfss	___flmul@prod^0,0,c
  4027  000DFC  EF02  F007         	goto	u2891
  4028  000E00  EF04  F007         	goto	u2890
  4029  000E04                     u2891:
  4030  000E04  EF06  F007         	goto	l903
  4031  000E08                     u2890:
  4032  000E08  EFF9  F006         	goto	l2794
  4033  000E0C                     l903:
  4034  000E0C  5039               	movf	___flmul@aexp^0,w,c
  4035  000E0E  B4D8               	btfsc	status,2,c
  4036  000E10  EF0C  F007         	goto	u2901
  4037  000E14  EF0E  F007         	goto	u2900
  4038  000E18                     u2901:
  4039  000E18  EF32  F007         	goto	l2806
  4040  000E1C                     u2900:
  4041  000E1C  0E01               	movlw	1
  4042  000E1E  263B               	addwf	___flmul@prod^0,f,c
  4043  000E20  0E00               	movlw	0
  4044  000E22  223C               	addwfc	(___flmul@prod+1)^0,f,c
  4045  000E24  223D               	addwfc	(___flmul@prod+2)^0,f,c
  4046  000E26  223E               	addwfc	(___flmul@prod+3)^0,f,c
  4047  000E28  A03E               	btfss	(___flmul@prod+3)^0,0,c
  4048  000E2A  EF19  F007         	goto	u2911
  4049  000E2E  EF1B  F007         	goto	u2910
  4050  000E32                     u2911:
  4051  000E32  EF32  F007         	goto	l2806
  4052  000E36                     u2910:
  4053  000E36  C03B  F030         	movff	___flmul@prod,??___flmul
  4054  000E3A  C03C  F031         	movff	___flmul@prod+1,??___flmul+1
  4055  000E3E  C03D  F032         	movff	___flmul@prod+2,??___flmul+2
  4056  000E42  C03E  F033         	movff	___flmul@prod+3,??___flmul+3
  4057  000E46  3433               	rlcf	(??___flmul+3)^0,w,c
  4058  000E48  3233               	rrcf	(??___flmul+3)^0,f,c
  4059  000E4A  3232               	rrcf	(??___flmul+2)^0,f,c
  4060  000E4C  3231               	rrcf	(??___flmul+1)^0,f,c
  4061  000E4E  3230               	rrcf	??___flmul^0,f,c
  4062  000E50  C030  F03B         	movff	??___flmul,___flmul@prod
  4063  000E54  C031  F03C         	movff	??___flmul+1,___flmul@prod+1
  4064  000E58  C032  F03D         	movff	??___flmul+2,___flmul@prod+2
  4065  000E5C  C033  F03E         	movff	??___flmul+3,___flmul@prod+3
  4066  000E60  4A3F               	infsnz	___flmul@temp^0,f,c
  4067  000E62  2A40               	incf	(___flmul@temp+1)^0,f,c
  4068  000E64                     l2806:
  4069  000E64  BE40               	btfsc	(___flmul@temp+1)^0,7,c
  4070  000E66  EF3D  F007         	goto	u2921
  4071  000E6A  5040               	movf	(___flmul@temp+1)^0,w,c
  4072  000E6C  E108               	bnz	u2920
  4073  000E6E  283F               	incf	___flmul@temp^0,w,c
  4074  000E70  A0D8               	btfss	status,0,c
  4075  000E72  EF3D  F007         	goto	u2921
  4076  000E76  EF3F  F007         	goto	u2920
  4077  000E7A                     u2921:
  4078  000E7A  EF49  F007         	goto	l2810
  4079  000E7E                     u2920:
  4080  000E7E  0E00               	movlw	0
  4081  000E80  6E3B               	movwf	___flmul@prod^0,c
  4082  000E82  0E00               	movlw	0
  4083  000E84  6E3C               	movwf	(___flmul@prod+1)^0,c
  4084  000E86  0E80               	movlw	128
  4085  000E88  6E3D               	movwf	(___flmul@prod+2)^0,c
  4086  000E8A  0E7F               	movlw	127
  4087  000E8C  6E3E               	movwf	(___flmul@prod+3)^0,c
  4088  000E8E  EF77  F007         	goto	l2822
  4089  000E92                     l2810:
  4090  000E92  BE40               	btfsc	(___flmul@temp+1)^0,7,c
  4091  000E94  EF56  F007         	goto	u2930
  4092  000E98  5040               	movf	(___flmul@temp+1)^0,w,c
  4093  000E9A  E106               	bnz	u2931
  4094  000E9C  043F               	decf	___flmul@temp^0,w,c
  4095  000E9E  B0D8               	btfsc	status,0,c
  4096  000EA0  EF54  F007         	goto	u2931
  4097  000EA4  EF56  F007         	goto	u2930
  4098  000EA8                     u2931:
  4099  000EA8  EF62  F007         	goto	l911
  4100  000EAC                     u2930:
  4101  000EAC  0E00               	movlw	0
  4102  000EAE  6E3B               	movwf	___flmul@prod^0,c
  4103  000EB0  0E00               	movlw	0
  4104  000EB2  6E3C               	movwf	(___flmul@prod+1)^0,c
  4105  000EB4  0E00               	movlw	0
  4106  000EB6  6E3D               	movwf	(___flmul@prod+2)^0,c
  4107  000EB8  0E00               	movlw	0
  4108  000EBA  6E3E               	movwf	(___flmul@prod+3)^0,c
  4109  000EBC  0E00               	movlw	0
  4110  000EBE  6E34               	movwf	___flmul@sign^0,c
  4111  000EC0  EF77  F007         	goto	l2822
  4112  000EC4                     l911:
  4113  000EC4  C03F  F03A         	movff	___flmul@temp,___flmul@bexp
  4114  000EC8  0EFF               	movlw	255
  4115  000ECA  163B               	andwf	___flmul@prod^0,f,c
  4116  000ECC  0EFF               	movlw	255
  4117  000ECE  163C               	andwf	(___flmul@prod+1)^0,f,c
  4118  000ED0  0E7F               	movlw	127
  4119  000ED2  163D               	andwf	(___flmul@prod+2)^0,f,c
  4120  000ED4  0E00               	movlw	0
  4121  000ED6  163E               	andwf	(___flmul@prod+3)^0,f,c
  4122  000ED8  A03A               	btfss	___flmul@bexp^0,0,c
  4123  000EDA  EF71  F007         	goto	u2941
  4124  000EDE  EF73  F007         	goto	u2940
  4125  000EE2                     u2941:
  4126  000EE2  EF74  F007         	goto	l2820
  4127  000EE6                     u2940:
  4128  000EE6  8E3D               	bsf	(___flmul@prod+2)^0,7,c
  4129  000EE8                     l2820:
  4130  000EE8  90D8               	bcf	status,0,c
  4131  000EEA  303A               	rrcf	___flmul@bexp^0,w,c
  4132  000EEC  6E3E               	movwf	(___flmul@prod+3)^0,c
  4133  000EEE                     l2822:
  4134  000EEE  5034               	movf	___flmul@sign^0,w,c
  4135  000EF0  123E               	iorwf	(___flmul@prod+3)^0,f,c
  4136  000EF2  C03B  F028         	movff	___flmul@prod,?___flmul
  4137  000EF6  C03C  F029         	movff	___flmul@prod+1,?___flmul+1
  4138  000EFA  C03D  F02A         	movff	___flmul@prod+2,?___flmul+2
  4139  000EFE  C03E  F02B         	movff	___flmul@prod+3,?___flmul+3
  4140  000F02                     l898:
  4141  000F02  0012               	return		;funcret
  4142  000F04                     __end_of___flmul:
  4143                           	opt callstack 0
  4144                           
  4145 ;; *************** function ___fldiv *****************
  4146 ;; Defined at:
  4147 ;;		line 11 in file "C:\Program Files (x86)\Microchip\xc8\v2.10\pic\sources\c99\common\sprcdiv.c"
  4148 ;; Parameters:    Size  Location     Type
  4149 ;;  b               4   14[COMRAM] unsigned char 
  4150 ;;  a               4   18[COMRAM] unsigned char 
  4151 ;; Auto vars:     Size  Location     Type
  4152 ;;  grs             4   33[COMRAM] unsigned long 
  4153 ;;  rem             4   26[COMRAM] unsigned long 
  4154 ;;  new_exp         2   31[COMRAM] short 
  4155 ;;  aexp            1   38[COMRAM] unsigned char 
  4156 ;;  bexp            1   37[COMRAM] unsigned char 
  4157 ;;  sign            1   30[COMRAM] unsigned char 
  4158 ;; Return value:  Size  Location     Type
  4159 ;;                  4   14[COMRAM] unsigned char 
  4160 ;; Registers used:
  4161 ;;		wreg, status,2, status,0
  4162 ;; Tracked objects:
  4163 ;;		On entry : 0/0
  4164 ;;		On exit  : 0/0
  4165 ;;		Unchanged: 0/0
  4166 ;; Data sizes:     COMRAM   BANK0   BANK1   BANK2   BANK3   BANK4   BANK5
  4167 ;;      Params:         8       0       0       0       0       0       0
  4168 ;;      Locals:        13       0       0       0       0       0       0
  4169 ;;      Temps:          4       0       0       0       0       0       0
  4170 ;;      Totals:        25       0       0       0       0       0       0
  4171 ;;Total ram usage:       25 bytes
  4172 ;; Hardware stack levels used:    1
  4173 ;; This function calls:
  4174 ;;		Nothing
  4175 ;; This function is called by:
  4176 ;;		_find_distance
  4177 ;;		_find_distance2
  4178 ;; This function uses a non-reentrant model
  4179 ;;
  4180                           
  4181                           	psect	text19
  4182  000F04                     __ptext19:
  4183                           	opt callstack 0
  4184  000F04                     ___fldiv:
  4185                           	opt callstack 29
  4186  000F04  5012               	movf	(___fldiv@b+3)^0,w,c
  4187  000F06  0B80               	andlw	128
  4188  000F08  6E1F               	movwf	___fldiv@sign^0,c
  4189  000F0A  5012               	movf	(___fldiv@b+3)^0,w,c
  4190  000F0C  2412               	addwf	(___fldiv@b+3)^0,w,c
  4191  000F0E  6E26               	movwf	___fldiv@bexp^0,c
  4192  000F10  AE11               	btfss	(___fldiv@b+2)^0,7,c
  4193  000F12  EF8D  F007         	goto	u2531
  4194  000F16  EF8F  F007         	goto	u2530
  4195  000F1A                     u2531:
  4196  000F1A  EF90  F007         	goto	l2566
  4197  000F1E                     u2530:
  4198  000F1E  8026               	bsf	___fldiv@bexp^0,0,c
  4199  000F20                     l2566:
  4200  000F20  5026               	movf	___fldiv@bexp^0,w,c
  4201  000F22  B4D8               	btfsc	status,2,c
  4202  000F24  EF96  F007         	goto	u2541
  4203  000F28  EF98  F007         	goto	u2540
  4204  000F2C                     u2541:
  4205  000F2C  EFAD  F007         	goto	l2576
  4206  000F30                     u2540:
  4207  000F30  2826               	incf	___fldiv@bexp^0,w,c
  4208  000F32  A4D8               	btfss	status,2,c
  4209  000F34  EF9E  F007         	goto	u2551
  4210  000F38  EFA0  F007         	goto	u2550
  4211  000F3C                     u2551:
  4212  000F3C  EFA8  F007         	goto	l2572
  4213  000F40                     u2550:
  4214  000F40  0E00               	movlw	0
  4215  000F42  6E0F               	movwf	___fldiv@b^0,c
  4216  000F44  0E00               	movlw	0
  4217  000F46  6E10               	movwf	(___fldiv@b+1)^0,c
  4218  000F48  0E00               	movlw	0
  4219  000F4A  6E11               	movwf	(___fldiv@b+2)^0,c
  4220  000F4C  0E00               	movlw	0
  4221  000F4E  6E12               	movwf	(___fldiv@b+3)^0,c
  4222  000F50                     l2572:
  4223  000F50  8E11               	bsf	(___fldiv@b+2)^0,7,c
  4224  000F52  0E00               	movlw	0
  4225  000F54  6E12               	movwf	(___fldiv@b+3)^0,c
  4226  000F56  EFB5  F007         	goto	l2578
  4227  000F5A                     l2576:
  4228  000F5A  0E00               	movlw	0
  4229  000F5C  6E0F               	movwf	___fldiv@b^0,c
  4230  000F5E  0E00               	movlw	0
  4231  000F60  6E10               	movwf	(___fldiv@b+1)^0,c
  4232  000F62  0E00               	movlw	0
  4233  000F64  6E11               	movwf	(___fldiv@b+2)^0,c
  4234  000F66  0E00               	movlw	0
  4235  000F68  6E12               	movwf	(___fldiv@b+3)^0,c
  4236  000F6A                     l2578:
  4237  000F6A  5016               	movf	(___fldiv@a+3)^0,w,c
  4238  000F6C  0B80               	andlw	128
  4239  000F6E  1A1F               	xorwf	___fldiv@sign^0,f,c
  4240  000F70  5016               	movf	(___fldiv@a+3)^0,w,c
  4241  000F72  2416               	addwf	(___fldiv@a+3)^0,w,c
  4242  000F74  6E27               	movwf	___fldiv@aexp^0,c
  4243  000F76  AE15               	btfss	(___fldiv@a+2)^0,7,c
  4244  000F78  EFC0  F007         	goto	u2561
  4245  000F7C  EFC2  F007         	goto	u2560
  4246  000F80                     u2561:
  4247  000F80  EFC3  F007         	goto	l2586
  4248  000F84                     u2560:
  4249  000F84  8027               	bsf	___fldiv@aexp^0,0,c
  4250  000F86                     l2586:
  4251  000F86  5027               	movf	___fldiv@aexp^0,w,c
  4252  000F88  B4D8               	btfsc	status,2,c
  4253  000F8A  EFC9  F007         	goto	u2571
  4254  000F8E  EFCB  F007         	goto	u2570
  4255  000F92                     u2571:
  4256  000F92  EFE0  F007         	goto	l2596
  4257  000F96                     u2570:
  4258  000F96  2827               	incf	___fldiv@aexp^0,w,c
  4259  000F98  A4D8               	btfss	status,2,c
  4260  000F9A  EFD1  F007         	goto	u2581
  4261  000F9E  EFD3  F007         	goto	u2580
  4262  000FA2                     u2581:
  4263  000FA2  EFDB  F007         	goto	l2592
  4264  000FA6                     u2580:
  4265  000FA6  0E00               	movlw	0
  4266  000FA8  6E13               	movwf	___fldiv@a^0,c
  4267  000FAA  0E00               	movlw	0
  4268  000FAC  6E14               	movwf	(___fldiv@a+1)^0,c
  4269  000FAE  0E00               	movlw	0
  4270  000FB0  6E15               	movwf	(___fldiv@a+2)^0,c
  4271  000FB2  0E00               	movlw	0
  4272  000FB4  6E16               	movwf	(___fldiv@a+3)^0,c
  4273  000FB6                     l2592:
  4274  000FB6  8E15               	bsf	(___fldiv@a+2)^0,7,c
  4275  000FB8  0E00               	movlw	0
  4276  000FBA  6E16               	movwf	(___fldiv@a+3)^0,c
  4277  000FBC  EFE8  F007         	goto	l2598
  4278  000FC0                     l2596:
  4279  000FC0  0E00               	movlw	0
  4280  000FC2  6E13               	movwf	___fldiv@a^0,c
  4281  000FC4  0E00               	movlw	0
  4282  000FC6  6E14               	movwf	(___fldiv@a+1)^0,c
  4283  000FC8  0E00               	movlw	0
  4284  000FCA  6E15               	movwf	(___fldiv@a+2)^0,c
  4285  000FCC  0E00               	movlw	0
  4286  000FCE  6E16               	movwf	(___fldiv@a+3)^0,c
  4287  000FD0                     l2598:
  4288  000FD0  5013               	movf	___fldiv@a^0,w,c
  4289  000FD2  1014               	iorwf	(___fldiv@a+1)^0,w,c
  4290  000FD4  1015               	iorwf	(___fldiv@a+2)^0,w,c
  4291  000FD6  1016               	iorwf	(___fldiv@a+3)^0,w,c
  4292  000FD8  A4D8               	btfss	status,2,c
  4293  000FDA  EFF1  F007         	goto	u2591
  4294  000FDE  EFF3  F007         	goto	u2590
  4295  000FE2                     u2591:
  4296  000FE2  EF0B  F008         	goto	l2610
  4297  000FE6                     u2590:
  4298  000FE6  0E00               	movlw	0
  4299  000FE8  6E0F               	movwf	___fldiv@b^0,c
  4300  000FEA  0E00               	movlw	0
  4301  000FEC  6E10               	movwf	(___fldiv@b+1)^0,c
  4302  000FEE  0E00               	movlw	0
  4303  000FF0  6E11               	movwf	(___fldiv@b+2)^0,c
  4304  000FF2  0E00               	movlw	0
  4305  000FF4  6E12               	movwf	(___fldiv@b+3)^0,c
  4306  000FF6  0E80               	movlw	128
  4307  000FF8  1211               	iorwf	(___fldiv@b+2)^0,f,c
  4308  000FFA  0E7F               	movlw	127
  4309  000FFC  1212               	iorwf	(___fldiv@b+3)^0,f,c
  4310  000FFE                     l2604:
  4311  000FFE  501F               	movf	___fldiv@sign^0,w,c
  4312  001000  1212               	iorwf	(___fldiv@b+3)^0,f,c
  4313  001002  C00F  F00F         	movff	___fldiv@b,?___fldiv
  4314  001006  C010  F010         	movff	___fldiv@b+1,?___fldiv+1
  4315  00100A  C011  F011         	movff	___fldiv@b+2,?___fldiv+2
  4316  00100E  C012  F012         	movff	___fldiv@b+3,?___fldiv+3
  4317  001012  EF4E  F009         	goto	l862
  4318  001016                     l2610:
  4319  001016  5026               	movf	___fldiv@bexp^0,w,c
  4320  001018  A4D8               	btfss	status,2,c
  4321  00101A  EF11  F008         	goto	u2601
  4322  00101E  EF13  F008         	goto	u2600
  4323  001022                     u2601:
  4324  001022  EF1D  F008         	goto	l2618
  4325  001026                     u2600:
  4326  001026  0E00               	movlw	0
  4327  001028  6E0F               	movwf	?___fldiv^0,c
  4328  00102A  0E00               	movlw	0
  4329  00102C  6E10               	movwf	(?___fldiv+1)^0,c
  4330  00102E  0E00               	movlw	0
  4331  001030  6E11               	movwf	(?___fldiv+2)^0,c
  4332  001032  0E00               	movlw	0
  4333  001034  6E12               	movwf	(?___fldiv+3)^0,c
  4334  001036  EF4E  F009         	goto	l862
  4335  00103A                     l2618:
  4336  00103A  5027               	movf	___fldiv@aexp^0,w,c
  4337  00103C  C026  F017         	movff	___fldiv@bexp,??___fldiv
  4338  001040  6A18               	clrf	(??___fldiv+1)^0,c
  4339  001042  5E17               	subwf	??___fldiv^0,f,c
  4340  001044  0E00               	movlw	0
  4341  001046  5A18               	subwfb	(??___fldiv+1)^0,f,c
  4342  001048  0E7F               	movlw	127
  4343  00104A  2417               	addwf	??___fldiv^0,w,c
  4344  00104C  6E20               	movwf	___fldiv@new_exp^0,c
  4345  00104E  0E00               	movlw	0
  4346  001050  2018               	addwfc	(??___fldiv+1)^0,w,c
  4347  001052  6E21               	movwf	(___fldiv@new_exp+1)^0,c
  4348  001054  C00F  F01B         	movff	___fldiv@b,___fldiv@rem
  4349  001058  C010  F01C         	movff	___fldiv@b+1,___fldiv@rem+1
  4350  00105C  C011  F01D         	movff	___fldiv@b+2,___fldiv@rem+2
  4351  001060  C012  F01E         	movff	___fldiv@b+3,___fldiv@rem+3
  4352  001064  0E00               	movlw	0
  4353  001066  6E0F               	movwf	___fldiv@b^0,c
  4354  001068  0E00               	movlw	0
  4355  00106A  6E10               	movwf	(___fldiv@b+1)^0,c
  4356  00106C  0E00               	movlw	0
  4357  00106E  6E11               	movwf	(___fldiv@b+2)^0,c
  4358  001070  0E00               	movlw	0
  4359  001072  6E12               	movwf	(___fldiv@b+3)^0,c
  4360  001074  0E00               	movlw	0
  4361  001076  6E22               	movwf	___fldiv@grs^0,c
  4362  001078  0E00               	movlw	0
  4363  00107A  6E23               	movwf	(___fldiv@grs+1)^0,c
  4364  00107C  0E00               	movlw	0
  4365  00107E  6E24               	movwf	(___fldiv@grs+2)^0,c
  4366  001080  0E00               	movlw	0
  4367  001082  6E25               	movwf	(___fldiv@grs+3)^0,c
  4368  001084  0E00               	movlw	0
  4369  001086  6E27               	movwf	___fldiv@aexp^0,c
  4370  001088  EF7E  F008         	goto	l864
  4371  00108C                     l2628:
  4372  00108C  5027               	movf	___fldiv@aexp^0,w,c
  4373  00108E  B4D8               	btfsc	status,2,c
  4374  001090  EF4C  F008         	goto	u2611
  4375  001094  EF4E  F008         	goto	u2610
  4376  001098                     u2611:
  4377  001098  EF65  F008         	goto	l2636
  4378  00109C                     u2610:
  4379  00109C  90D8               	bcf	status,0,c
  4380  00109E  361B               	rlcf	___fldiv@rem^0,f,c
  4381  0010A0  361C               	rlcf	(___fldiv@rem+1)^0,f,c
  4382  0010A2  361D               	rlcf	(___fldiv@rem+2)^0,f,c
  4383  0010A4  361E               	rlcf	(___fldiv@rem+3)^0,f,c
  4384  0010A6  90D8               	bcf	status,0,c
  4385  0010A8  360F               	rlcf	___fldiv@b^0,f,c
  4386  0010AA  3610               	rlcf	(___fldiv@b+1)^0,f,c
  4387  0010AC  3611               	rlcf	(___fldiv@b+2)^0,f,c
  4388  0010AE  3612               	rlcf	(___fldiv@b+3)^0,f,c
  4389  0010B0  AE25               	btfss	(___fldiv@grs+3)^0,7,c
  4390  0010B2  EF5D  F008         	goto	u2621
  4391  0010B6  EF5F  F008         	goto	u2620
  4392  0010BA                     u2621:
  4393  0010BA  EF60  F008         	goto	l867
  4394  0010BE                     u2620:
  4395  0010BE  800F               	bsf	___fldiv@b^0,0,c
  4396  0010C0                     l867:
  4397  0010C0  90D8               	bcf	status,0,c
  4398  0010C2  3622               	rlcf	___fldiv@grs^0,f,c
  4399  0010C4  3623               	rlcf	(___fldiv@grs+1)^0,f,c
  4400  0010C6  3624               	rlcf	(___fldiv@grs+2)^0,f,c
  4401  0010C8  3625               	rlcf	(___fldiv@grs+3)^0,f,c
  4402  0010CA                     l2636:
  4403  0010CA  5013               	movf	___fldiv@a^0,w,c
  4404  0010CC  5C1B               	subwf	___fldiv@rem^0,w,c
  4405  0010CE  5014               	movf	(___fldiv@a+1)^0,w,c
  4406  0010D0  581C               	subwfb	(___fldiv@rem+1)^0,w,c
  4407  0010D2  5015               	movf	(___fldiv@a+2)^0,w,c
  4408  0010D4  581D               	subwfb	(___fldiv@rem+2)^0,w,c
  4409  0010D6  5016               	movf	(___fldiv@a+3)^0,w,c
  4410  0010D8  581E               	subwfb	(___fldiv@rem+3)^0,w,c
  4411  0010DA  A0D8               	btfss	status,0,c
  4412  0010DC  EF72  F008         	goto	u2631
  4413  0010E0  EF74  F008         	goto	u2630
  4414  0010E4                     u2631:
  4415  0010E4  EF7D  F008         	goto	l2642
  4416  0010E8                     u2630:
  4417  0010E8  8C25               	bsf	(___fldiv@grs+3)^0,6,c
  4418  0010EA  5013               	movf	___fldiv@a^0,w,c
  4419  0010EC  5E1B               	subwf	___fldiv@rem^0,f,c
  4420  0010EE  5014               	movf	(___fldiv@a+1)^0,w,c
  4421  0010F0  5A1C               	subwfb	(___fldiv@rem+1)^0,f,c
  4422  0010F2  5015               	movf	(___fldiv@a+2)^0,w,c
  4423  0010F4  5A1D               	subwfb	(___fldiv@rem+2)^0,f,c
  4424  0010F6  5016               	movf	(___fldiv@a+3)^0,w,c
  4425  0010F8  5A1E               	subwfb	(___fldiv@rem+3)^0,f,c
  4426  0010FA                     l2642:
  4427  0010FA  2A27               	incf	___fldiv@aexp^0,f,c
  4428  0010FC                     l864:
  4429  0010FC  0E19               	movlw	25
  4430  0010FE  6427               	cpfsgt	___fldiv@aexp^0,c
  4431  001100  EF84  F008         	goto	u2641
  4432  001104  EF86  F008         	goto	u2640
  4433  001108                     u2641:
  4434  001108  EF46  F008         	goto	l2628
  4435  00110C                     u2640:
  4436  00110C  501B               	movf	___fldiv@rem^0,w,c
  4437  00110E  101C               	iorwf	(___fldiv@rem+1)^0,w,c
  4438  001110  101D               	iorwf	(___fldiv@rem+2)^0,w,c
  4439  001112  101E               	iorwf	(___fldiv@rem+3)^0,w,c
  4440  001114  B4D8               	btfsc	status,2,c
  4441  001116  EF8F  F008         	goto	u2651
  4442  00111A  EF91  F008         	goto	u2650
  4443  00111E                     u2651:
  4444  00111E  EFA9  F008         	goto	l2654
  4445  001122                     u2650:
  4446  001122  8022               	bsf	___fldiv@grs^0,0,c
  4447  001124  EFA9  F008         	goto	l2654
  4448  001128                     l2648:
  4449  001128  90D8               	bcf	status,0,c
  4450  00112A  360F               	rlcf	___fldiv@b^0,f,c
  4451  00112C  3610               	rlcf	(___fldiv@b+1)^0,f,c
  4452  00112E  3611               	rlcf	(___fldiv@b+2)^0,f,c
  4453  001130  3612               	rlcf	(___fldiv@b+3)^0,f,c
  4454  001132  AE25               	btfss	(___fldiv@grs+3)^0,7,c
  4455  001134  EF9E  F008         	goto	u2661
  4456  001138  EFA0  F008         	goto	u2660
  4457  00113C                     u2661:
  4458  00113C  EFA1  F008         	goto	l873
  4459  001140                     u2660:
  4460  001140  800F               	bsf	___fldiv@b^0,0,c
  4461  001142                     l873:
  4462  001142  90D8               	bcf	status,0,c
  4463  001144  3622               	rlcf	___fldiv@grs^0,f,c
  4464  001146  3623               	rlcf	(___fldiv@grs+1)^0,f,c
  4465  001148  3624               	rlcf	(___fldiv@grs+2)^0,f,c
  4466  00114A  3625               	rlcf	(___fldiv@grs+3)^0,f,c
  4467  00114C  0620               	decf	___fldiv@new_exp^0,f,c
  4468  00114E  A0D8               	btfss	status,0,c
  4469  001150  0621               	decf	(___fldiv@new_exp+1)^0,f,c
  4470  001152                     l2654:
  4471  001152  AE11               	btfss	(___fldiv@b+2)^0,7,c
  4472  001154  EFAE  F008         	goto	u2671
  4473  001158  EFB0  F008         	goto	u2670
  4474  00115C                     u2671:
  4475  00115C  EF94  F008         	goto	l2648
  4476  001160                     u2670:
  4477  001160  0E00               	movlw	0
  4478  001162  6E27               	movwf	___fldiv@aexp^0,c
  4479  001164  AE25               	btfss	(___fldiv@grs+3)^0,7,c
  4480  001166  EFB7  F008         	goto	u2681
  4481  00116A  EFB9  F008         	goto	u2680
  4482  00116E                     u2681:
  4483  00116E  EFDD  F008         	goto	l875
  4484  001172                     u2680:
  4485  001172  0EFF               	movlw	255
  4486  001174  1422               	andwf	___fldiv@grs^0,w,c
  4487  001176  6E17               	movwf	??___fldiv^0,c
  4488  001178  0EFF               	movlw	255
  4489  00117A  1423               	andwf	(___fldiv@grs+1)^0,w,c
  4490  00117C  6E18               	movwf	(??___fldiv+1)^0,c
  4491  00117E  0EFF               	movlw	255
  4492  001180  1424               	andwf	(___fldiv@grs+2)^0,w,c
  4493  001182  6E19               	movwf	(??___fldiv+2)^0,c
  4494  001184  0E7F               	movlw	127
  4495  001186  1425               	andwf	(___fldiv@grs+3)^0,w,c
  4496  001188  6E1A               	movwf	(??___fldiv+3)^0,c
  4497  00118A  5017               	movf	??___fldiv^0,w,c
  4498  00118C  1018               	iorwf	(??___fldiv+1)^0,w,c
  4499  00118E  1019               	iorwf	(??___fldiv+2)^0,w,c
  4500  001190  101A               	iorwf	(??___fldiv+3)^0,w,c
  4501  001192  B4D8               	btfsc	status,2,c
  4502  001194  EFCE  F008         	goto	u2691
  4503  001198  EFD0  F008         	goto	u2690
  4504  00119C                     u2691:
  4505  00119C  EFD4  F008         	goto	l876
  4506  0011A0                     u2690:
  4507  0011A0                     l2662:
  4508  0011A0  0E01               	movlw	1
  4509  0011A2  6E27               	movwf	___fldiv@aexp^0,c
  4510  0011A4  EFDD  F008         	goto	l875
  4511  0011A8                     l876:
  4512  0011A8  A00F               	btfss	___fldiv@b^0,0,c
  4513  0011AA  EFD9  F008         	goto	u2701
  4514  0011AE  EFDB  F008         	goto	u2700
  4515  0011B2                     u2701:
  4516  0011B2  EFDD  F008         	goto	l875
  4517  0011B6                     u2700:
  4518  0011B6  EFD0  F008         	goto	l2662
  4519  0011BA                     l875:
  4520  0011BA  5027               	movf	___fldiv@aexp^0,w,c
  4521  0011BC  B4D8               	btfsc	status,2,c
  4522  0011BE  EFE3  F008         	goto	u2711
  4523  0011C2  EFE5  F008         	goto	u2710
  4524  0011C6                     u2711:
  4525  0011C6  EF09  F009         	goto	l2674
  4526  0011CA                     u2710:
  4527  0011CA  0E01               	movlw	1
  4528  0011CC  260F               	addwf	___fldiv@b^0,f,c
  4529  0011CE  0E00               	movlw	0
  4530  0011D0  2210               	addwfc	(___fldiv@b+1)^0,f,c
  4531  0011D2  2211               	addwfc	(___fldiv@b+2)^0,f,c
  4532  0011D4  2212               	addwfc	(___fldiv@b+3)^0,f,c
  4533  0011D6  A012               	btfss	(___fldiv@b+3)^0,0,c
  4534  0011D8  EFF0  F008         	goto	u2721
  4535  0011DC  EFF2  F008         	goto	u2720
  4536  0011E0                     u2721:
  4537  0011E0  EF09  F009         	goto	l2674
  4538  0011E4                     u2720:
  4539  0011E4  C00F  F017         	movff	___fldiv@b,??___fldiv
  4540  0011E8  C010  F018         	movff	___fldiv@b+1,??___fldiv+1
  4541  0011EC  C011  F019         	movff	___fldiv@b+2,??___fldiv+2
  4542  0011F0  C012  F01A         	movff	___fldiv@b+3,??___fldiv+3
  4543  0011F4  341A               	rlcf	(??___fldiv+3)^0,w,c
  4544  0011F6  321A               	rrcf	(??___fldiv+3)^0,f,c
  4545  0011F8  3219               	rrcf	(??___fldiv+2)^0,f,c
  4546  0011FA  3218               	rrcf	(??___fldiv+1)^0,f,c
  4547  0011FC  3217               	rrcf	??___fldiv^0,f,c
  4548  0011FE  C017  F00F         	movff	??___fldiv,___fldiv@b
  4549  001202  C018  F010         	movff	??___fldiv+1,___fldiv@b+1
  4550  001206  C019  F011         	movff	??___fldiv+2,___fldiv@b+2
  4551  00120A  C01A  F012         	movff	??___fldiv+3,___fldiv@b+3
  4552  00120E  4A20               	infsnz	___fldiv@new_exp^0,f,c
  4553  001210  2A21               	incf	(___fldiv@new_exp+1)^0,f,c
  4554  001212                     l2674:
  4555  001212  BE21               	btfsc	(___fldiv@new_exp+1)^0,7,c
  4556  001214  EF14  F009         	goto	u2731
  4557  001218  5021               	movf	(___fldiv@new_exp+1)^0,w,c
  4558  00121A  E108               	bnz	u2730
  4559  00121C  2820               	incf	___fldiv@new_exp^0,w,c
  4560  00121E  A0D8               	btfss	status,0,c
  4561  001220  EF14  F009         	goto	u2731
  4562  001224  EF16  F009         	goto	u2730
  4563  001228                     u2731:
  4564  001228  EF21  F009         	goto	l2678
  4565  00122C                     u2730:
  4566  00122C  0E00               	movlw	0
  4567  00122E  6E21               	movwf	(___fldiv@new_exp+1)^0,c
  4568  001230  6820               	setf	___fldiv@new_exp^0,c
  4569  001232  0E00               	movlw	0
  4570  001234  6E0F               	movwf	___fldiv@b^0,c
  4571  001236  0E00               	movlw	0
  4572  001238  6E10               	movwf	(___fldiv@b+1)^0,c
  4573  00123A  0E00               	movlw	0
  4574  00123C  6E11               	movwf	(___fldiv@b+2)^0,c
  4575  00123E  0E00               	movlw	0
  4576  001240  6E12               	movwf	(___fldiv@b+3)^0,c
  4577  001242                     l2678:
  4578  001242  BE21               	btfsc	(___fldiv@new_exp+1)^0,7,c
  4579  001244  EF2E  F009         	goto	u2740
  4580  001248  5021               	movf	(___fldiv@new_exp+1)^0,w,c
  4581  00124A  E106               	bnz	u2741
  4582  00124C  0420               	decf	___fldiv@new_exp^0,w,c
  4583  00124E  B0D8               	btfsc	status,0,c
  4584  001250  EF2C  F009         	goto	u2741
  4585  001254  EF2E  F009         	goto	u2740
  4586  001258                     u2741:
  4587  001258  EF3C  F009         	goto	l2682
  4588  00125C                     u2740:
  4589  00125C  0E00               	movlw	0
  4590  00125E  6E21               	movwf	(___fldiv@new_exp+1)^0,c
  4591  001260  0E00               	movlw	0
  4592  001262  6E20               	movwf	___fldiv@new_exp^0,c
  4593  001264  0E00               	movlw	0
  4594  001266  6E0F               	movwf	___fldiv@b^0,c
  4595  001268  0E00               	movlw	0
  4596  00126A  6E10               	movwf	(___fldiv@b+1)^0,c
  4597  00126C  0E00               	movlw	0
  4598  00126E  6E11               	movwf	(___fldiv@b+2)^0,c
  4599  001270  0E00               	movlw	0
  4600  001272  6E12               	movwf	(___fldiv@b+3)^0,c
  4601  001274  0E00               	movlw	0
  4602  001276  6E1F               	movwf	___fldiv@sign^0,c
  4603  001278                     l2682:
  4604  001278  C020  F026         	movff	___fldiv@new_exp,___fldiv@bexp
  4605  00127C  A026               	btfss	___fldiv@bexp^0,0,c
  4606  00127E  EF43  F009         	goto	u2751
  4607  001282  EF45  F009         	goto	u2750
  4608  001286                     u2751:
  4609  001286  EF48  F009         	goto	l2688
  4610  00128A                     u2750:
  4611  00128A  8E11               	bsf	(___fldiv@b+2)^0,7,c
  4612  00128C  EF49  F009         	goto	l2690
  4613  001290                     l2688:
  4614  001290  9E11               	bcf	(___fldiv@b+2)^0,7,c
  4615  001292                     l2690:
  4616  001292  90D8               	bcf	status,0,c
  4617  001294  3026               	rrcf	___fldiv@bexp^0,w,c
  4618  001296  6E12               	movwf	(___fldiv@b+3)^0,c
  4619  001298  EFFF  F007         	goto	l2604
  4620  00129C                     l862:
  4621  00129C  0012               	return		;funcret
  4622  00129E                     __end_of___fldiv:
  4623                           	opt callstack 0
  4624                           
  4625 ;; *************** function ___fladd *****************
  4626 ;; Defined at:
  4627 ;;		line 10 in file "C:\Program Files (x86)\Microchip\xc8\v2.10\pic\sources\c99\common\sprcadd.c"
  4628 ;; Parameters:    Size  Location     Type
  4629 ;;  b               4    0[COMRAM] unsigned char 
  4630 ;;  a               4    4[COMRAM] unsigned char 
  4631 ;; Auto vars:     Size  Location     Type
  4632 ;;  grs             1   15[COMRAM] unsigned char 
  4633 ;;  bexp            1   14[COMRAM] unsigned char 
  4634 ;;  aexp            1   13[COMRAM] unsigned char 
  4635 ;;  signs           1   12[COMRAM] unsigned char 
  4636 ;; Return value:  Size  Location     Type
  4637 ;;                  4    0[COMRAM] unsigned char 
  4638 ;; Registers used:
  4639 ;;		wreg, status,2, status,0
  4640 ;; Tracked objects:
  4641 ;;		On entry : 0/0
  4642 ;;		On exit  : 0/0
  4643 ;;		Unchanged: 0/0
  4644 ;; Data sizes:     COMRAM   BANK0   BANK1   BANK2   BANK3   BANK4   BANK5
  4645 ;;      Params:         8       0       0       0       0       0       0
  4646 ;;      Locals:         4       0       0       0       0       0       0
  4647 ;;      Temps:          4       0       0       0       0       0       0
  4648 ;;      Totals:        16       0       0       0       0       0       0
  4649 ;;Total ram usage:       16 bytes
  4650 ;; Hardware stack levels used:    1
  4651 ;; This function calls:
  4652 ;;		Nothing
  4653 ;; This function is called by:
  4654 ;;		_find_distance
  4655 ;;		_find_distance2
  4656 ;; This function uses a non-reentrant model
  4657 ;;
  4658                           
  4659                           	psect	text20
  4660  00061A                     __ptext20:
  4661                           	opt callstack 0
  4662  00061A                     ___fladd:
  4663                           	opt callstack 29
  4664  00061A  5004               	movf	(___fladd@b+3)^0,w,c
  4665  00061C  0B80               	andlw	128
  4666  00061E  6E0D               	movwf	___fladd@signs^0,c
  4667  000620  5004               	movf	(___fladd@b+3)^0,w,c
  4668  000622  2404               	addwf	(___fladd@b+3)^0,w,c
  4669  000624  6E0F               	movwf	___fladd@bexp^0,c
  4670  000626  AE03               	btfss	(___fladd@b+2)^0,7,c
  4671  000628  EF18  F003         	goto	u2141
  4672  00062C  EF1A  F003         	goto	u2140
  4673  000630                     u2141:
  4674  000630  EF1B  F003         	goto	l2364
  4675  000634                     u2140:
  4676  000634  800F               	bsf	___fladd@bexp^0,0,c
  4677  000636                     l2364:
  4678  000636  500F               	movf	___fladd@bexp^0,w,c
  4679  000638  B4D8               	btfsc	status,2,c
  4680  00063A  EF21  F003         	goto	u2151
  4681  00063E  EF23  F003         	goto	u2150
  4682  000642                     u2151:
  4683  000642  EF38  F003         	goto	l2374
  4684  000646                     u2150:
  4685  000646  280F               	incf	___fladd@bexp^0,w,c
  4686  000648  A4D8               	btfss	status,2,c
  4687  00064A  EF29  F003         	goto	u2161
  4688  00064E  EF2B  F003         	goto	u2160
  4689  000652                     u2161:
  4690  000652  EF33  F003         	goto	l2370
  4691  000656                     u2160:
  4692  000656  0E00               	movlw	0
  4693  000658  6E01               	movwf	___fladd@b^0,c
  4694  00065A  0E00               	movlw	0
  4695  00065C  6E02               	movwf	(___fladd@b+1)^0,c
  4696  00065E  0E00               	movlw	0
  4697  000660  6E03               	movwf	(___fladd@b+2)^0,c
  4698  000662  0E00               	movlw	0
  4699  000664  6E04               	movwf	(___fladd@b+3)^0,c
  4700  000666                     l2370:
  4701  000666  8E03               	bsf	(___fladd@b+2)^0,7,c
  4702  000668  0E00               	movlw	0
  4703  00066A  6E04               	movwf	(___fladd@b+3)^0,c
  4704  00066C  EF40  F003         	goto	l2376
  4705  000670                     l2374:
  4706  000670  0E00               	movlw	0
  4707  000672  6E01               	movwf	___fladd@b^0,c
  4708  000674  0E00               	movlw	0
  4709  000676  6E02               	movwf	(___fladd@b+1)^0,c
  4710  000678  0E00               	movlw	0
  4711  00067A  6E03               	movwf	(___fladd@b+2)^0,c
  4712  00067C  0E00               	movlw	0
  4713  00067E  6E04               	movwf	(___fladd@b+3)^0,c
  4714  000680                     l2376:
  4715  000680  5008               	movf	(___fladd@a+3)^0,w,c
  4716  000682  0B80               	andlw	128
  4717  000684  6E0E               	movwf	___fladd@aexp^0,c
  4718  000686  500D               	movf	___fladd@signs^0,w,c
  4719  000688  180E               	xorwf	___fladd@aexp^0,w,c
  4720  00068A  B4D8               	btfsc	status,2,c
  4721  00068C  EF4A  F003         	goto	u2171
  4722  000690  EF4C  F003         	goto	u2170
  4723  000694                     u2171:
  4724  000694  EF4D  F003         	goto	l2382
  4725  000698                     u2170:
  4726  000698  8C0D               	bsf	___fladd@signs^0,6,c
  4727  00069A                     l2382:
  4728  00069A  5008               	movf	(___fladd@a+3)^0,w,c
  4729  00069C  2408               	addwf	(___fladd@a+3)^0,w,c
  4730  00069E  6E0E               	movwf	___fladd@aexp^0,c
  4731  0006A0  AE07               	btfss	(___fladd@a+2)^0,7,c
  4732  0006A2  EF55  F003         	goto	u2181
  4733  0006A6  EF57  F003         	goto	u2180
  4734  0006AA                     u2181:
  4735  0006AA  EF58  F003         	goto	l2388
  4736  0006AE                     u2180:
  4737  0006AE  800E               	bsf	___fladd@aexp^0,0,c
  4738  0006B0                     l2388:
  4739  0006B0  500E               	movf	___fladd@aexp^0,w,c
  4740  0006B2  B4D8               	btfsc	status,2,c
  4741  0006B4  EF5E  F003         	goto	u2191
  4742  0006B8  EF60  F003         	goto	u2190
  4743  0006BC                     u2191:
  4744  0006BC  EF75  F003         	goto	l2398
  4745  0006C0                     u2190:
  4746  0006C0  280E               	incf	___fladd@aexp^0,w,c
  4747  0006C2  A4D8               	btfss	status,2,c
  4748  0006C4  EF66  F003         	goto	u2201
  4749  0006C8  EF68  F003         	goto	u2200
  4750  0006CC                     u2201:
  4751  0006CC  EF70  F003         	goto	l2394
  4752  0006D0                     u2200:
  4753  0006D0  0E00               	movlw	0
  4754  0006D2  6E05               	movwf	___fladd@a^0,c
  4755  0006D4  0E00               	movlw	0
  4756  0006D6  6E06               	movwf	(___fladd@a+1)^0,c
  4757  0006D8  0E00               	movlw	0
  4758  0006DA  6E07               	movwf	(___fladd@a+2)^0,c
  4759  0006DC  0E00               	movlw	0
  4760  0006DE  6E08               	movwf	(___fladd@a+3)^0,c
  4761  0006E0                     l2394:
  4762  0006E0  8E07               	bsf	(___fladd@a+2)^0,7,c
  4763  0006E2  0E00               	movlw	0
  4764  0006E4  6E08               	movwf	(___fladd@a+3)^0,c
  4765  0006E6  EF7D  F003         	goto	l2400
  4766  0006EA                     l2398:
  4767  0006EA  0E00               	movlw	0
  4768  0006EC  6E05               	movwf	___fladd@a^0,c
  4769  0006EE  0E00               	movlw	0
  4770  0006F0  6E06               	movwf	(___fladd@a+1)^0,c
  4771  0006F2  0E00               	movlw	0
  4772  0006F4  6E07               	movwf	(___fladd@a+2)^0,c
  4773  0006F6  0E00               	movlw	0
  4774  0006F8  6E08               	movwf	(___fladd@a+3)^0,c
  4775  0006FA                     l2400:
  4776  0006FA  500F               	movf	___fladd@bexp^0,w,c
  4777  0006FC  5C0E               	subwf	___fladd@aexp^0,w,c
  4778  0006FE  B0D8               	btfsc	status,0,c
  4779  000700  EF84  F003         	goto	u2211
  4780  000704  EF86  F003         	goto	u2210
  4781  000708                     u2211:
  4782  000708  EFAD  F003         	goto	l2436
  4783  00070C                     u2210:
  4784  00070C  AC0D               	btfss	___fladd@signs^0,6,c
  4785  00070E  EF8B  F003         	goto	u2221
  4786  000712  EF8D  F003         	goto	u2220
  4787  000716                     u2221:
  4788  000716  EF8F  F003         	goto	l2406
  4789  00071A                     u2220:
  4790  00071A  0E80               	movlw	128
  4791  00071C  1A0D               	xorwf	___fladd@signs^0,f,c
  4792  00071E                     l2406:
  4793  00071E  C00F  F010         	movff	___fladd@bexp,___fladd@grs
  4794  000722  C00E  F00F         	movff	___fladd@aexp,___fladd@bexp
  4795  000726  C010  F00E         	movff	___fladd@grs,___fladd@aexp
  4796  00072A  C001  F010         	movff	___fladd@b,___fladd@grs
  4797  00072E  C005  F001         	movff	___fladd@a,___fladd@b
  4798  000732  C010  F005         	movff	___fladd@grs,___fladd@a
  4799  000736  C002  F010         	movff	___fladd@b+1,___fladd@grs
  4800  00073A  C006  F002         	movff	___fladd@a+1,___fladd@b+1
  4801  00073E  C010  F006         	movff	___fladd@grs,___fladd@a+1
  4802  000742  C003  F010         	movff	___fladd@b+2,___fladd@grs
  4803  000746  C007  F003         	movff	___fladd@a+2,___fladd@b+2
  4804  00074A  C010  F007         	movff	___fladd@grs,___fladd@a+2
  4805  00074E  C004  F010         	movff	___fladd@b+3,___fladd@grs
  4806  000752  C008  F004         	movff	___fladd@a+3,___fladd@b+3
  4807  000756  C010  F008         	movff	___fladd@grs,___fladd@a+3
  4808  00075A                     l2436:
  4809  00075A  0E00               	movlw	0
  4810  00075C  6E10               	movwf	___fladd@grs^0,c
  4811  00075E  500F               	movf	___fladd@bexp^0,w,c
  4812  000760  C00E  F009         	movff	___fladd@aexp,??___fladd
  4813  000764  6A0A               	clrf	(??___fladd+1)^0,c
  4814  000766  5E09               	subwf	??___fladd^0,f,c
  4815  000768  0E00               	movlw	0
  4816  00076A  5A0A               	subwfb	(??___fladd+1)^0,f,c
  4817  00076C  BE0A               	btfsc	(??___fladd+1)^0,7,c
  4818  00076E  EFC2  F003         	goto	u2231
  4819  000772  500A               	movf	(??___fladd+1)^0,w,c
  4820  000774  E109               	bnz	u2230
  4821  000776  0E1A               	movlw	26
  4822  000778  5C09               	subwf	??___fladd^0,w,c
  4823  00077A  A0D8               	btfss	status,0,c
  4824  00077C  EFC2  F003         	goto	u2231
  4825  000780  EFC4  F003         	goto	u2230
  4826  000784                     u2231:
  4827  000784  EFFB  F003         	goto	l809
  4828  000788                     u2230:
  4829  000788  5001               	movf	___fladd@b^0,w,c
  4830  00078A  1002               	iorwf	(___fladd@b+1)^0,w,c
  4831  00078C  1003               	iorwf	(___fladd@b+2)^0,w,c
  4832  00078E  1004               	iorwf	(___fladd@b+3)^0,w,c
  4833  000790  A4D8               	btfss	status,2,c
  4834  000792  EFCD  F003         	goto	u2241
  4835  000796  EFD0  F003         	goto	u2240
  4836  00079A                     u2241:
  4837  00079A  0E01               	movlw	1
  4838  00079C  EFD1  F003         	goto	u2250
  4839  0007A0                     u2240:
  4840  0007A0  0E00               	movlw	0
  4841  0007A2                     u2250:
  4842  0007A2  6E10               	movwf	___fladd@grs^0,c
  4843  0007A4  0E00               	movlw	0
  4844  0007A6  6E01               	movwf	___fladd@b^0,c
  4845  0007A8  0E00               	movlw	0
  4846  0007AA  6E02               	movwf	(___fladd@b+1)^0,c
  4847  0007AC  0E00               	movlw	0
  4848  0007AE  6E03               	movwf	(___fladd@b+2)^0,c
  4849  0007B0  0E00               	movlw	0
  4850  0007B2  6E04               	movwf	(___fladd@b+3)^0,c
  4851  0007B4  C00E  F00F         	movff	___fladd@aexp,___fladd@bexp
  4852  0007B8  EF04  F004         	goto	l808
  4853  0007BC                     l810:
  4854  0007BC  A010               	btfss	___fladd@grs^0,0,c
  4855  0007BE  EFE3  F003         	goto	u2261
  4856  0007C2  EFE5  F003         	goto	u2260
  4857  0007C6                     u2261:
  4858  0007C6  EFEB  F003         	goto	l2448
  4859  0007CA                     u2260:
  4860  0007CA  90D8               	bcf	status,0,c
  4861  0007CC  3010               	rrcf	___fladd@grs^0,w,c
  4862  0007CE  0901               	iorlw	1
  4863  0007D0  6E10               	movwf	___fladd@grs^0,c
  4864  0007D2  EFED  F003         	goto	l2450
  4865  0007D6                     l2448:
  4866  0007D6  90D8               	bcf	status,0,c
  4867  0007D8  3210               	rrcf	___fladd@grs^0,f,c
  4868  0007DA                     l2450:
  4869  0007DA  A001               	btfss	___fladd@b^0,0,c
  4870  0007DC  EFF2  F003         	goto	u2271
  4871  0007E0  EFF4  F003         	goto	u2270
  4872  0007E4                     u2271:
  4873  0007E4  EFF5  F003         	goto	l2454
  4874  0007E8                     u2270:
  4875  0007E8  8E10               	bsf	___fladd@grs^0,7,c
  4876  0007EA                     l2454:
  4877  0007EA  3404               	rlcf	(___fladd@b+3)^0,w,c
  4878  0007EC  3204               	rrcf	(___fladd@b+3)^0,f,c
  4879  0007EE  3203               	rrcf	(___fladd@b+2)^0,f,c
  4880  0007F0  3202               	rrcf	(___fladd@b+1)^0,f,c
  4881  0007F2  3201               	rrcf	___fladd@b^0,f,c
  4882  0007F4  2A0F               	incf	___fladd@bexp^0,f,c
  4883  0007F6                     l809:
  4884  0007F6  500E               	movf	___fladd@aexp^0,w,c
  4885  0007F8  5C0F               	subwf	___fladd@bexp^0,w,c
  4886  0007FA  A0D8               	btfss	status,0,c
  4887  0007FC  EF02  F004         	goto	u2281
  4888  000800  EF04  F004         	goto	u2280
  4889  000804                     u2281:
  4890  000804  EFDE  F003         	goto	l810
  4891  000808                     u2280:
  4892  000808                     l808:
  4893  000808  BC0D               	btfsc	___fladd@signs^0,6,c
  4894  00080A  EF09  F004         	goto	u2291
  4895  00080E  EF0B  F004         	goto	u2290
  4896  000812                     u2291:
  4897  000812  EF4B  F004         	goto	l2482
  4898  000816                     u2290:
  4899  000816  500F               	movf	___fladd@bexp^0,w,c
  4900  000818  A4D8               	btfss	status,2,c
  4901  00081A  EF11  F004         	goto	u2301
  4902  00081E  EF13  F004         	goto	u2300
  4903  000822                     u2301:
  4904  000822  EF1D  F004         	goto	l2464
  4905  000826                     u2300:
  4906  000826  0E00               	movlw	0
  4907  000828  6E01               	movwf	?___fladd^0,c
  4908  00082A  0E00               	movlw	0
  4909  00082C  6E02               	movwf	(?___fladd+1)^0,c
  4910  00082E  0E00               	movlw	0
  4911  000830  6E03               	movwf	(?___fladd+2)^0,c
  4912  000832  0E00               	movlw	0
  4913  000834  6E04               	movwf	(?___fladd+3)^0,c
  4914  000836  EF6C  F005         	goto	l817
  4915  00083A                     l2464:
  4916  00083A  5005               	movf	___fladd@a^0,w,c
  4917  00083C  2601               	addwf	___fladd@b^0,f,c
  4918  00083E  5006               	movf	(___fladd@a+1)^0,w,c
  4919  000840  2202               	addwfc	(___fladd@b+1)^0,f,c
  4920  000842  5007               	movf	(___fladd@a+2)^0,w,c
  4921  000844  2203               	addwfc	(___fladd@b+2)^0,f,c
  4922  000846  5008               	movf	(___fladd@a+3)^0,w,c
  4923  000848  2204               	addwfc	(___fladd@b+3)^0,f,c
  4924  00084A  A004               	btfss	(___fladd@b+3)^0,0,c
  4925  00084C  EF2A  F004         	goto	u2311
  4926  000850  EF2C  F004         	goto	u2310
  4927  000854                     u2311:
  4928  000854  EFD8  F004         	goto	l2518
  4929  000858                     u2310:
  4930  000858  A010               	btfss	___fladd@grs^0,0,c
  4931  00085A  EF31  F004         	goto	u2321
  4932  00085E  EF33  F004         	goto	u2320
  4933  000862                     u2321:
  4934  000862  EF39  F004         	goto	l2472
  4935  000866                     u2320:
  4936  000866  90D8               	bcf	status,0,c
  4937  000868  3010               	rrcf	___fladd@grs^0,w,c
  4938  00086A  0901               	iorlw	1
  4939  00086C  6E10               	movwf	___fladd@grs^0,c
  4940  00086E  EF3B  F004         	goto	l2474
  4941  000872                     l2472:
  4942  000872  90D8               	bcf	status,0,c
  4943  000874  3210               	rrcf	___fladd@grs^0,f,c
  4944  000876                     l2474:
  4945  000876  A001               	btfss	___fladd@b^0,0,c
  4946  000878  EF40  F004         	goto	u2331
  4947  00087C  EF42  F004         	goto	u2330
  4948  000880                     u2331:
  4949  000880  EF43  F004         	goto	l2478
  4950  000884                     u2330:
  4951  000884  8E10               	bsf	___fladd@grs^0,7,c
  4952  000886                     l2478:
  4953  000886  3404               	rlcf	(___fladd@b+3)^0,w,c
  4954  000888  3204               	rrcf	(___fladd@b+3)^0,f,c
  4955  00088A  3203               	rrcf	(___fladd@b+2)^0,f,c
  4956  00088C  3202               	rrcf	(___fladd@b+1)^0,f,c
  4957  00088E  3201               	rrcf	___fladd@b^0,f,c
  4958  000890  2A0F               	incf	___fladd@bexp^0,f,c
  4959  000892  EFD8  F004         	goto	l2518
  4960  000896                     l2482:
  4961  000896  5005               	movf	___fladd@a^0,w,c
  4962  000898  5C01               	subwf	___fladd@b^0,w,c
  4963  00089A  5006               	movf	(___fladd@a+1)^0,w,c
  4964  00089C  5802               	subwfb	(___fladd@b+1)^0,w,c
  4965  00089E  5007               	movf	(___fladd@a+2)^0,w,c
  4966  0008A0  5803               	subwfb	(___fladd@b+2)^0,w,c
  4967  0008A2  5004               	movf	(___fladd@b+3)^0,w,c
  4968  0008A4  0A80               	xorlw	128
  4969  0008A6  6E09               	movwf	??___fladd^0,c
  4970  0008A8  5008               	movf	(___fladd@a+3)^0,w,c
  4971  0008AA  0A80               	xorlw	128
  4972  0008AC  5809               	subwfb	??___fladd^0,w,c
  4973  0008AE  B0D8               	btfsc	status,0,c
  4974  0008B0  EF5C  F004         	goto	u2341
  4975  0008B4  EF5E  F004         	goto	u2340
  4976  0008B8                     u2341:
  4977  0008B8  EF89  F004         	goto	l2492
  4978  0008BC                     u2340:
  4979  0008BC  5001               	movf	___fladd@b^0,w,c
  4980  0008BE  5C05               	subwf	___fladd@a^0,w,c
  4981  0008C0  6E09               	movwf	??___fladd^0,c
  4982  0008C2  5002               	movf	(___fladd@b+1)^0,w,c
  4983  0008C4  5806               	subwfb	(___fladd@a+1)^0,w,c
  4984  0008C6  6E0A               	movwf	(??___fladd+1)^0,c
  4985  0008C8  5003               	movf	(___fladd@b+2)^0,w,c
  4986  0008CA  5807               	subwfb	(___fladd@a+2)^0,w,c
  4987  0008CC  6E0B               	movwf	(??___fladd+2)^0,c
  4988  0008CE  5004               	movf	(___fladd@b+3)^0,w,c
  4989  0008D0  5808               	subwfb	(___fladd@a+3)^0,w,c
  4990  0008D2  6E0C               	movwf	(??___fladd+3)^0,c
  4991  0008D4  0EFF               	movlw	255
  4992  0008D6  2409               	addwf	??___fladd^0,w,c
  4993  0008D8  6E01               	movwf	___fladd@b^0,c
  4994  0008DA  0EFF               	movlw	255
  4995  0008DC  200A               	addwfc	(??___fladd+1)^0,w,c
  4996  0008DE  6E02               	movwf	(___fladd@b+1)^0,c
  4997  0008E0  0EFF               	movlw	255
  4998  0008E2  200B               	addwfc	(??___fladd+2)^0,w,c
  4999  0008E4  6E03               	movwf	(___fladd@b+2)^0,c
  5000  0008E6  0EFF               	movlw	255
  5001  0008E8  200C               	addwfc	(??___fladd+3)^0,w,c
  5002  0008EA  6E04               	movwf	(___fladd@b+3)^0,c
  5003  0008EC  0E80               	movlw	128
  5004  0008EE  1A0D               	xorwf	___fladd@signs^0,f,c
  5005  0008F0  6C10               	negf	___fladd@grs^0,c
  5006  0008F2  5010               	movf	___fladd@grs^0,w,c
  5007  0008F4  A4D8               	btfss	status,2,c
  5008  0008F6  EF7F  F004         	goto	u2351
  5009  0008FA  EF81  F004         	goto	u2350
  5010  0008FE                     u2351:
  5011  0008FE  EF91  F004         	goto	l825
  5012  000902                     u2350:
  5013  000902  0E01               	movlw	1
  5014  000904  2601               	addwf	___fladd@b^0,f,c
  5015  000906  0E00               	movlw	0
  5016  000908  2202               	addwfc	(___fladd@b+1)^0,f,c
  5017  00090A  2203               	addwfc	(___fladd@b+2)^0,f,c
  5018  00090C  2204               	addwfc	(___fladd@b+3)^0,f,c
  5019  00090E  EF91  F004         	goto	l825
  5020  000912                     l2492:
  5021  000912  5005               	movf	___fladd@a^0,w,c
  5022  000914  5E01               	subwf	___fladd@b^0,f,c
  5023  000916  5006               	movf	(___fladd@a+1)^0,w,c
  5024  000918  5A02               	subwfb	(___fladd@b+1)^0,f,c
  5025  00091A  5007               	movf	(___fladd@a+2)^0,w,c
  5026  00091C  5A03               	subwfb	(___fladd@b+2)^0,f,c
  5027  00091E  5008               	movf	(___fladd@a+3)^0,w,c
  5028  000920  5A04               	subwfb	(___fladd@b+3)^0,f,c
  5029  000922                     l825:
  5030  000922  5001               	movf	___fladd@b^0,w,c
  5031  000924  1002               	iorwf	(___fladd@b+1)^0,w,c
  5032  000926  1003               	iorwf	(___fladd@b+2)^0,w,c
  5033  000928  1004               	iorwf	(___fladd@b+3)^0,w,c
  5034  00092A  A4D8               	btfss	status,2,c
  5035  00092C  EF9A  F004         	goto	u2361
  5036  000930  EF9C  F004         	goto	u2360
  5037  000934                     u2361:
  5038  000934  EFD1  F004         	goto	l2516
  5039  000938                     u2360:
  5040  000938  5010               	movf	___fladd@grs^0,w,c
  5041  00093A  A4D8               	btfss	status,2,c
  5042  00093C  EFA2  F004         	goto	u2371
  5043  000940  EFA4  F004         	goto	u2370
  5044  000944                     u2371:
  5045  000944  EFD1  F004         	goto	l2516
  5046  000948                     u2370:
  5047  000948  0E00               	movlw	0
  5048  00094A  6E01               	movwf	?___fladd^0,c
  5049  00094C  0E00               	movlw	0
  5050  00094E  6E02               	movwf	(?___fladd+1)^0,c
  5051  000950  0E00               	movlw	0
  5052  000952  6E03               	movwf	(?___fladd+2)^0,c
  5053  000954  0E00               	movlw	0
  5054  000956  6E04               	movwf	(?___fladd+3)^0,c
  5055  000958  EF6C  F005         	goto	l817
  5056  00095C                     l2500:
  5057  00095C  90D8               	bcf	status,0,c
  5058  00095E  3601               	rlcf	___fladd@b^0,f,c
  5059  000960  3602               	rlcf	(___fladd@b+1)^0,f,c
  5060  000962  3603               	rlcf	(___fladd@b+2)^0,f,c
  5061  000964  3604               	rlcf	(___fladd@b+3)^0,f,c
  5062  000966  AE10               	btfss	___fladd@grs^0,7,c
  5063  000968  EFB8  F004         	goto	u2381
  5064  00096C  EFBA  F004         	goto	u2380
  5065  000970                     u2381:
  5066  000970  EFBB  F004         	goto	l2506
  5067  000974                     u2380:
  5068  000974  8001               	bsf	___fladd@b^0,0,c
  5069  000976                     l2506:
  5070  000976  A010               	btfss	___fladd@grs^0,0,c
  5071  000978  EFC0  F004         	goto	u2391
  5072  00097C  EFC2  F004         	goto	u2390
  5073  000980                     u2391:
  5074  000980  EFC6  F004         	goto	l2510
  5075  000984                     u2390:
  5076  000984  80D8               	bsf	status,0,c
  5077  000986  3610               	rlcf	___fladd@grs^0,f,c
  5078  000988  EFC8  F004         	goto	l2512
  5079  00098C                     l2510:
  5080  00098C  90D8               	bcf	status,0,c
  5081  00098E  3610               	rlcf	___fladd@grs^0,f,c
  5082  000990                     l2512:
  5083  000990  500F               	movf	___fladd@bexp^0,w,c
  5084  000992  B4D8               	btfsc	status,2,c
  5085  000994  EFCE  F004         	goto	u2401
  5086  000998  EFD0  F004         	goto	u2400
  5087  00099C                     u2401:
  5088  00099C  EFD1  F004         	goto	l2516
  5089  0009A0                     u2400:
  5090  0009A0  060F               	decf	___fladd@bexp^0,f,c
  5091  0009A2                     l2516:
  5092  0009A2  AE03               	btfss	(___fladd@b+2)^0,7,c
  5093  0009A4  EFD6  F004         	goto	u2411
  5094  0009A8  EFD8  F004         	goto	u2410
  5095  0009AC                     u2411:
  5096  0009AC  EFAE  F004         	goto	l2500
  5097  0009B0                     u2410:
  5098  0009B0                     l2518:
  5099  0009B0  0E00               	movlw	0
  5100  0009B2  6E0E               	movwf	___fladd@aexp^0,c
  5101  0009B4  AE10               	btfss	___fladd@grs^0,7,c
  5102  0009B6  EFDF  F004         	goto	u2421
  5103  0009BA  EFE1  F004         	goto	u2420
  5104  0009BE                     u2421:
  5105  0009BE  EFF9  F004         	goto	l834
  5106  0009C2                     u2420:
  5107  0009C2  C010  F009         	movff	___fladd@grs,??___fladd
  5108  0009C6  0E7F               	movlw	127
  5109  0009C8  1609               	andwf	??___fladd^0,f,c
  5110  0009CA  B4D8               	btfsc	status,2,c
  5111  0009CC  EFEA  F004         	goto	u2431
  5112  0009D0  EFEC  F004         	goto	u2430
  5113  0009D4                     u2431:
  5114  0009D4  EFF0  F004         	goto	l835
  5115  0009D8                     u2430:
  5116  0009D8                     l2524:
  5117  0009D8  0E01               	movlw	1
  5118  0009DA  6E0E               	movwf	___fladd@aexp^0,c
  5119  0009DC  EFF9  F004         	goto	l834
  5120  0009E0                     l835:
  5121  0009E0  A001               	btfss	___fladd@b^0,0,c
  5122  0009E2  EFF5  F004         	goto	u2441
  5123  0009E6  EFF7  F004         	goto	u2440
  5124  0009EA                     u2441:
  5125  0009EA  EFF9  F004         	goto	l834
  5126  0009EE                     u2440:
  5127  0009EE  EFEC  F004         	goto	l2524
  5128  0009F2                     l834:
  5129  0009F2  500E               	movf	___fladd@aexp^0,w,c
  5130  0009F4  B4D8               	btfsc	status,2,c
  5131  0009F6  EFFF  F004         	goto	u2451
  5132  0009FA  EF01  F005         	goto	u2450
  5133  0009FE                     u2451:
  5134  0009FE  EF2C  F005         	goto	l2536
  5135  000A02                     u2450:
  5136  000A02  0E01               	movlw	1
  5137  000A04  2601               	addwf	___fladd@b^0,f,c
  5138  000A06  0E00               	movlw	0
  5139  000A08  2202               	addwfc	(___fladd@b+1)^0,f,c
  5140  000A0A  2203               	addwfc	(___fladd@b+2)^0,f,c
  5141  000A0C  2204               	addwfc	(___fladd@b+3)^0,f,c
  5142  000A0E  A004               	btfss	(___fladd@b+3)^0,0,c
  5143  000A10  EF0C  F005         	goto	u2461
  5144  000A14  EF0E  F005         	goto	u2460
  5145  000A18                     u2461:
  5146  000A18  EF2C  F005         	goto	l2536
  5147  000A1C                     u2460:
  5148  000A1C  C001  F009         	movff	___fladd@b,??___fladd
  5149  000A20  C002  F00A         	movff	___fladd@b+1,??___fladd+1
  5150  000A24  C003  F00B         	movff	___fladd@b+2,??___fladd+2
  5151  000A28  C004  F00C         	movff	___fladd@b+3,??___fladd+3
  5152  000A2C  340C               	rlcf	(??___fladd+3)^0,w,c
  5153  000A2E  320C               	rrcf	(??___fladd+3)^0,f,c
  5154  000A30  320B               	rrcf	(??___fladd+2)^0,f,c
  5155  000A32  320A               	rrcf	(??___fladd+1)^0,f,c
  5156  000A34  3209               	rrcf	??___fladd^0,f,c
  5157  000A36  C009  F001         	movff	??___fladd,___fladd@b
  5158  000A3A  C00A  F002         	movff	??___fladd+1,___fladd@b+1
  5159  000A3E  C00B  F003         	movff	??___fladd+2,___fladd@b+2
  5160  000A42  C00C  F004         	movff	??___fladd+3,___fladd@b+3
  5161  000A46  280F               	incf	___fladd@bexp^0,w,c
  5162  000A48  B4D8               	btfsc	status,2,c
  5163  000A4A  EF29  F005         	goto	u2471
  5164  000A4E  EF2B  F005         	goto	u2470
  5165  000A52                     u2471:
  5166  000A52  EF2C  F005         	goto	l2536
  5167  000A56                     u2470:
  5168  000A56  2A0F               	incf	___fladd@bexp^0,f,c
  5169  000A58                     l2536:
  5170  000A58  280F               	incf	___fladd@bexp^0,w,c
  5171  000A5A  B4D8               	btfsc	status,2,c
  5172  000A5C  EF32  F005         	goto	u2481
  5173  000A60  EF34  F005         	goto	u2480
  5174  000A64                     u2481:
  5175  000A64  EF3C  F005         	goto	l2540
  5176  000A68                     u2480:
  5177  000A68  500F               	movf	___fladd@bexp^0,w,c
  5178  000A6A  A4D8               	btfss	status,2,c
  5179  000A6C  EF3A  F005         	goto	u2491
  5180  000A70  EF3C  F005         	goto	u2490
  5181  000A74                     u2491:
  5182  000A74  EF4E  F005         	goto	l2544
  5183  000A78                     u2490:
  5184  000A78                     l2540:
  5185  000A78  0E00               	movlw	0
  5186  000A7A  6E01               	movwf	___fladd@b^0,c
  5187  000A7C  0E00               	movlw	0
  5188  000A7E  6E02               	movwf	(___fladd@b+1)^0,c
  5189  000A80  0E00               	movlw	0
  5190  000A82  6E03               	movwf	(___fladd@b+2)^0,c
  5191  000A84  0E00               	movlw	0
  5192  000A86  6E04               	movwf	(___fladd@b+3)^0,c
  5193  000A88  500F               	movf	___fladd@bexp^0,w,c
  5194  000A8A  A4D8               	btfss	status,2,c
  5195  000A8C  EF4A  F005         	goto	u2501
  5196  000A90  EF4C  F005         	goto	u2500
  5197  000A94                     u2501:
  5198  000A94  EF4E  F005         	goto	l2544
  5199  000A98                     u2500:
  5200  000A98  0E00               	movlw	0
  5201  000A9A  6E0D               	movwf	___fladd@signs^0,c
  5202  000A9C                     l2544:
  5203  000A9C  A00F               	btfss	___fladd@bexp^0,0,c
  5204  000A9E  EF53  F005         	goto	u2511
  5205  000AA2  EF55  F005         	goto	u2510
  5206  000AA6                     u2511:
  5207  000AA6  EF58  F005         	goto	l2548
  5208  000AAA                     u2510:
  5209  000AAA  8E03               	bsf	(___fladd@b+2)^0,7,c
  5210  000AAC  EF59  F005         	goto	l2550
  5211  000AB0                     l2548:
  5212  000AB0  9E03               	bcf	(___fladd@b+2)^0,7,c
  5213  000AB2                     l2550:
  5214  000AB2  90D8               	bcf	status,0,c
  5215  000AB4  300F               	rrcf	___fladd@bexp^0,w,c
  5216  000AB6  6E04               	movwf	(___fladd@b+3)^0,c
  5217  000AB8  AE0D               	btfss	___fladd@signs^0,7,c
  5218  000ABA  EF61  F005         	goto	u2521
  5219  000ABE  EF63  F005         	goto	u2520
  5220  000AC2                     u2521:
  5221  000AC2  EF64  F005         	goto	l2556
  5222  000AC6                     u2520:
  5223  000AC6  8E04               	bsf	(___fladd@b+3)^0,7,c
  5224  000AC8                     l2556:
  5225  000AC8  C001  F001         	movff	___fladd@b,?___fladd
  5226  000ACC  C002  F002         	movff	___fladd@b+1,?___fladd+1
  5227  000AD0  C003  F003         	movff	___fladd@b+2,?___fladd+2
  5228  000AD4  C004  F004         	movff	___fladd@b+3,?___fladd+3
  5229  000AD8                     l817:
  5230  000AD8  0012               	return		;funcret
  5231  000ADA                     __end_of___fladd:
  5232                           	opt callstack 0
  5233                           
  5234 ;; *************** function _Trigger_Pulse_10us *****************
  5235 ;; Defined at:
  5236 ;;		line 19 in file "ultrasonic.c"
  5237 ;; Parameters:    Size  Location     Type
  5238 ;;		None
  5239 ;; Auto vars:     Size  Location     Type
  5240 ;;		None
  5241 ;; Return value:  Size  Location     Type
  5242 ;;                  1    wreg      void 
  5243 ;; Registers used:
  5244 ;;		wreg
  5245 ;; Tracked objects:
  5246 ;;		On entry : 0/0
  5247 ;;		On exit  : 0/0
  5248 ;;		Unchanged: 0/0
  5249 ;; Data sizes:     COMRAM   BANK0   BANK1   BANK2   BANK3   BANK4   BANK5
  5250 ;;      Params:         0       0       0       0       0       0       0
  5251 ;;      Locals:         0       0       0       0       0       0       0
  5252 ;;      Temps:          0       0       0       0       0       0       0
  5253 ;;      Totals:         0       0       0       0       0       0       0
  5254 ;;Total ram usage:        0 bytes
  5255 ;; Hardware stack levels used:    1
  5256 ;; This function calls:
  5257 ;;		Nothing
  5258 ;; This function is called by:
  5259 ;;		_find_distance
  5260 ;; This function uses a non-reentrant model
  5261 ;;
  5262                           
  5263                           	psect	text21
  5264  002652                     __ptext21:
  5265                           	opt callstack 0
  5266  002652                     _Trigger_Pulse_10us:
  5267                           	opt callstack 29
  5268  002652                     
  5269                           ;ultrasonic.c: 21:     LATD0 = 1;
  5270  002652  808C               	bsf	3980,0,c	;volatile
  5271  002654                     
  5272                           ;ultrasonic.c: 22:     _delay((unsigned long)((10)*(8000000/4000000.0)));
  5273  002654  0E06               	movlw	6
  5274  002656                     u3307:
  5275  002656  2EE8               	decfsz	wreg,f,c
  5276  002658  D7FE               	bra	u3307
  5277  00265A  D000               	nop2	
  5278  00265C                     
  5279                           ;ultrasonic.c: 23:     LATD0 = 0;
  5280  00265C  908C               	bcf	3980,0,c	;volatile
  5281  00265E  0012               	return		;funcret
  5282  002660                     __end_of_Trigger_Pulse_10us:
  5283                           	opt callstack 0
  5284                           
  5285 ;; *************** function _LCD_String_xy *****************
  5286 ;; Defined at:
  5287 ;;		line 55 in file "LCD_4bit.c"
  5288 ;; Parameters:    Size  Location     Type
  5289 ;;  row             1    wreg     unsigned char 
  5290 ;;  pos             1   10[COMRAM] unsigned char 
  5291 ;;  msg             2   11[COMRAM] PTR const unsigned char 
  5292 ;;		 -> STR_7(2), main@Total_distance2(40), STR_4(2), main@Total_distance(40), 
  5293 ;;		 -> STR_1(11), 
  5294 ;; Auto vars:     Size  Location     Type
  5295 ;;  row             1   13[COMRAM] unsigned char 
  5296 ;;  location        1   14[COMRAM] unsigned char 
  5297 ;; Return value:  Size  Location     Type
  5298 ;;                  1    wreg      void 
  5299 ;; Registers used:
  5300 ;;		wreg, fsr1l, fsr1h, status,2, status,0, tblptrl, tblptrh, tblptru, cstack
  5301 ;; Tracked objects:
  5302 ;;		On entry : 0/0
  5303 ;;		On exit  : 0/0
  5304 ;;		Unchanged: 0/0
  5305 ;; Data sizes:     COMRAM   BANK0   BANK1   BANK2   BANK3   BANK4   BANK5
  5306 ;;      Params:         3       0       0       0       0       0       0
  5307 ;;      Locals:         2       0       0       0       0       0       0
  5308 ;;      Temps:          0       0       0       0       0       0       0
  5309 ;;      Totals:         5       0       0       0       0       0       0
  5310 ;;Total ram usage:        5 bytes
  5311 ;; Hardware stack levels used:    1
  5312 ;; Hardware stack levels required when called:    3
  5313 ;; This function calls:
  5314 ;;		_LCD_Command
  5315 ;;		_LCD_String
  5316 ;; This function is called by:
  5317 ;;		_main
  5318 ;; This function uses a non-reentrant model
  5319 ;;
  5320                           
  5321                           	psect	text22
  5322  002584                     __ptext22:
  5323                           	opt callstack 0
  5324  002584                     _LCD_String_xy:
  5325                           	opt callstack 27
  5326                           
  5327                           ;incstack = 0
  5328                           ;LCD_String_xy@row stored from wreg
  5329  002584  6E0E               	movwf	LCD_String_xy@row^0,c
  5330  002586                     
  5331                           ;LCD_4bit.c: 58:     if(row<=1)
  5332  002586  0E02               	movlw	2
  5333  002588  600E               	cpfslt	LCD_String_xy@row^0,c
  5334  00258A  EFC9  F012         	goto	u3121
  5335  00258E  EFCB  F012         	goto	u3120
  5336  002592                     u3121:
  5337  002592  EFD4  F012         	goto	l2940
  5338  002596                     u3120:
  5339  002596                     
  5340                           ;LCD_4bit.c: 59:     {;LCD_4bit.c: 60:         location=(0x80) | ((pos) & 0x0f);
  5341  002596  500B               	movf	LCD_String_xy@pos^0,w,c
  5342  002598  0B0F               	andlw	15
  5343  00259A  0980               	iorlw	128
  5344  00259C  6E0F               	movwf	LCD_String_xy@location^0,c
  5345  00259E                     
  5346                           ;LCD_4bit.c: 61:         LCD_Command(location);
  5347  00259E  500F               	movf	LCD_String_xy@location^0,w,c
  5348  0025A0  EC35  F012         	call	_LCD_Command
  5349                           
  5350                           ;LCD_4bit.c: 62:     }
  5351  0025A4  EFDB  F012         	goto	l2944
  5352  0025A8                     l2940:
  5353                           
  5354                           ;LCD_4bit.c: 64:     {;LCD_4bit.c: 65:         location=(0xC0) | ((pos) & 0x0f);
  5355  0025A8  500B               	movf	LCD_String_xy@pos^0,w,c
  5356  0025AA  0B0F               	andlw	15
  5357  0025AC  09C0               	iorlw	192
  5358  0025AE  6E0F               	movwf	LCD_String_xy@location^0,c
  5359  0025B0                     
  5360                           ;LCD_4bit.c: 66:         LCD_Command(location);
  5361  0025B0  500F               	movf	LCD_String_xy@location^0,w,c
  5362  0025B2  EC35  F012         	call	_LCD_Command
  5363  0025B6                     l2944:
  5364                           
  5365                           ;LCD_4bit.c: 70:     LCD_String(msg);
  5366  0025B6  C00C  F009         	movff	LCD_String_xy@msg,LCD_String@msg
  5367  0025BA  C00D  F00A         	movff	LCD_String_xy@msg+1,LCD_String@msg+1
  5368  0025BE  ECB7  F011         	call	_LCD_String	;wreg free
  5369  0025C2  0012               	return		;funcret
  5370  0025C4                     __end_of_LCD_String_xy:
  5371                           	opt callstack 0
  5372                           
  5373 ;; *************** function _LCD_String *****************
  5374 ;; Defined at:
  5375 ;;		line 45 in file "LCD_4bit.c"
  5376 ;; Parameters:    Size  Location     Type
  5377 ;;  msg             2    8[COMRAM] PTR const unsigned char 
  5378 ;;		 -> STR_7(2), STR_6(7), main@Total_distance2(40), STR_4(2), 
  5379 ;;		 -> STR_3(7), main@Total_distance(40), STR_1(11), 
  5380 ;; Auto vars:     Size  Location     Type
  5381 ;;		None
  5382 ;; Return value:  Size  Location     Type
  5383 ;;                  1    wreg      void 
  5384 ;; Registers used:
  5385 ;;		wreg, fsr1l, fsr1h, status,2, status,0, tblptrl, tblptrh, tblptru, cstack
  5386 ;; Tracked objects:
  5387 ;;		On entry : 0/0
  5388 ;;		On exit  : 0/0
  5389 ;;		Unchanged: 0/0
  5390 ;; Data sizes:     COMRAM   BANK0   BANK1   BANK2   BANK3   BANK4   BANK5
  5391 ;;      Params:         2       0       0       0       0       0       0
  5392 ;;      Locals:         0       0       0       0       0       0       0
  5393 ;;      Temps:          0       0       0       0       0       0       0
  5394 ;;      Totals:         2       0       0       0       0       0       0
  5395 ;;Total ram usage:        2 bytes
  5396 ;; Hardware stack levels used:    1
  5397 ;; Hardware stack levels required when called:    2
  5398 ;; This function calls:
  5399 ;;		_LCD_Char
  5400 ;; This function is called by:
  5401 ;;		_main
  5402 ;;		_LCD_String_xy
  5403 ;; This function uses a non-reentrant model
  5404 ;;
  5405                           
  5406                           	psect	text23
  5407  00236E                     __ptext23:
  5408                           	opt callstack 0
  5409  00236E                     _LCD_String:
  5410                           	opt callstack 27
  5411  00236E                     
  5412                           ;LCD_4bit.c: 45: void LCD_String(const char *msg);LCD_4bit.c: 46: {;LCD_4bit.c: 47:  whi
      +                          le((*msg)!=0)
  5413  00236E  EFCD  F011         	goto	l2316
  5414  002372                     l2312:
  5415                           
  5416                           ;LCD_4bit.c: 48:  {;LCD_4bit.c: 49:    LCD_Char(*msg);
  5417  002372  C009  FFF6         	movff	LCD_String@msg,tblptrl
  5418  002376  C00A  FFF7         	movff	LCD_String@msg+1,tblptrh
  5419  00237A  6AF8               	clrf	tblptru,c
  5420  00237C  0E05               	movlw	(high __ramtop+-1)
  5421  00237E  64F7               	cpfsgt	tblptrh,c
  5422  002380  D003               	bra	u2107
  5423  002382  0008               	tblrd		*
  5424  002384  50F5               	movf	tablat,w,c
  5425  002386  D005               	bra	u2100
  5426  002388                     u2107:
  5427  002388  CFF6 FFE1          	movff	tblptrl,fsr1l
  5428  00238C  CFF7 FFE2          	movff	tblptrh,fsr1h
  5429  002390  50E7               	movf	indf1,w,c
  5430  002392                     u2100:
  5431  002392  EC0F  F012         	call	_LCD_Char
  5432  002396                     
  5433                           ;LCD_4bit.c: 50:    msg++;
  5434  002396  4A09               	infsnz	LCD_String@msg^0,f,c
  5435  002398  2A0A               	incf	(LCD_String@msg+1)^0,f,c
  5436  00239A                     l2316:
  5437                           
  5438                           ;LCD_4bit.c: 47:  while((*msg)!=0)
  5439  00239A  C009  FFF6         	movff	LCD_String@msg,tblptrl
  5440  00239E  C00A  FFF7         	movff	LCD_String@msg+1,tblptrh
  5441  0023A2  6AF8               	clrf	tblptru,c
  5442  0023A4  0E05               	movlw	(high __ramtop+-1)
  5443  0023A6  64F7               	cpfsgt	tblptrh,c
  5444  0023A8  D003               	bra	u2117
  5445  0023AA  0008               	tblrd		*
  5446  0023AC  50F5               	movf	tablat,w,c
  5447  0023AE  D005               	bra	u2110
  5448  0023B0                     u2117:
  5449  0023B0  CFF6 FFE1          	movff	tblptrl,fsr1l
  5450  0023B4  CFF7 FFE2          	movff	tblptrh,fsr1h
  5451  0023B8  50E7               	movf	indf1,w,c
  5452  0023BA                     u2110:
  5453  0023BA  0900               	iorlw	0
  5454  0023BC  A4D8               	btfss	status,2,c
  5455  0023BE  EFE3  F011         	goto	u2121
  5456  0023C2  EFE5  F011         	goto	u2120
  5457  0023C6                     u2121:
  5458  0023C6  EFB9  F011         	goto	l2312
  5459  0023CA                     u2120:
  5460  0023CA  0012               	return		;funcret
  5461  0023CC                     __end_of_LCD_String:
  5462                           	opt callstack 0
  5463                           
  5464 ;; *************** function _LCD_Char *****************
  5465 ;; Defined at:
  5466 ;;		line 31 in file "LCD_4bit.c"
  5467 ;; Parameters:    Size  Location     Type
  5468 ;;  dat             1    wreg     unsigned char 
  5469 ;; Auto vars:     Size  Location     Type
  5470 ;;  dat             1    7[COMRAM] unsigned char 
  5471 ;; Return value:  Size  Location     Type
  5472 ;;                  1    wreg      void 
  5473 ;; Registers used:
  5474 ;;		wreg, status,2, status,0, cstack
  5475 ;; Tracked objects:
  5476 ;;		On entry : 0/0
  5477 ;;		On exit  : 0/0
  5478 ;;		Unchanged: 0/0
  5479 ;; Data sizes:     COMRAM   BANK0   BANK1   BANK2   BANK3   BANK4   BANK5
  5480 ;;      Params:         0       0       0       0       0       0       0
  5481 ;;      Locals:         1       0       0       0       0       0       0
  5482 ;;      Temps:          1       0       0       0       0       0       0
  5483 ;;      Totals:         2       0       0       0       0       0       0
  5484 ;;Total ram usage:        2 bytes
  5485 ;; Hardware stack levels used:    1
  5486 ;; Hardware stack levels required when called:    1
  5487 ;; This function calls:
  5488 ;;		_MSdelay
  5489 ;; This function is called by:
  5490 ;;		_LCD_String
  5491 ;; This function uses a non-reentrant model
  5492 ;;
  5493                           
  5494                           	psect	text24
  5495  00241E                     __ptext24:
  5496                           	opt callstack 0
  5497  00241E                     _LCD_Char:
  5498                           	opt callstack 27
  5499                           
  5500                           ;incstack = 0
  5501                           ;LCD_Char@dat stored from wreg
  5502  00241E  6E08               	movwf	LCD_Char@dat^0,c
  5503  002420                     
  5504                           ;LCD_4bit.c: 31: void LCD_Char(unsigned char dat);LCD_4bit.c: 32: {;LCD_4bit.c: 33:  LAT
      +                          D = (LATD & 0x0f) | (0xF0 & dat);
  5505  002420  C008  F007         	movff	LCD_Char@dat,??_LCD_Char
  5506  002424  0EF0               	movlw	240
  5507  002426  1607               	andwf	??_LCD_Char^0,f,c
  5508  002428  508C               	movf	140,w,c	;volatile
  5509  00242A  0B0F               	andlw	15
  5510  00242C  1007               	iorwf	??_LCD_Char^0,w,c
  5511  00242E  6E8C               	movwf	140,c	;volatile
  5512  002430                     
  5513                           ;LCD_4bit.c: 34:  LATD2 = 1;
  5514  002430  848C               	bsf	3980,2,c	;volatile
  5515  002432                     
  5516                           ;LCD_4bit.c: 35:  LATD3 = 1;
  5517  002432  868C               	bsf	3980,3,c	;volatile
  5518  002434                     
  5519                           ;LCD_4bit.c: 36:  __nop();
  5520  002434  F000               	nop	
  5521  002436                     
  5522                           ;LCD_4bit.c: 37:  LATD3 = 0;
  5523  002436  968C               	bcf	3980,3,c	;volatile
  5524  002438                     
  5525                           ;LCD_4bit.c: 38:  MSdelay(1);
  5526  002438  0E00               	movlw	0
  5527  00243A  6E02               	movwf	(MSdelay@val+1)^0,c
  5528  00243C  0E01               	movlw	1
  5529  00243E  6E01               	movwf	MSdelay@val^0,c
  5530  002440  EC5B  F012         	call	_MSdelay	;wreg free
  5531  002444                     
  5532                           ;LCD_4bit.c: 39:     LATD = (LATD & 0x0f) | (dat<<4);
  5533  002444  C008  F007         	movff	LCD_Char@dat,??_LCD_Char
  5534  002448  3A07               	swapf	??_LCD_Char^0,f,c
  5535  00244A  0EF0               	movlw	240
  5536  00244C  1607               	andwf	??_LCD_Char^0,f,c
  5537  00244E  508C               	movf	140,w,c	;volatile
  5538  002450  0B0F               	andlw	15
  5539  002452  1007               	iorwf	??_LCD_Char^0,w,c
  5540  002454  6E8C               	movwf	140,c	;volatile
  5541  002456                     
  5542                           ;LCD_4bit.c: 40:  LATD3 = 1;
  5543  002456  868C               	bsf	3980,3,c	;volatile
  5544  002458                     
  5545                           ;LCD_4bit.c: 41:  __nop();
  5546  002458  F000               	nop	
  5547  00245A                     
  5548                           ;LCD_4bit.c: 42:  LATD3 = 0;
  5549  00245A  968C               	bcf	3980,3,c	;volatile
  5550                           
  5551                           ;LCD_4bit.c: 43:  MSdelay(3);
  5552  00245C  0E00               	movlw	0
  5553  00245E  6E02               	movwf	(MSdelay@val+1)^0,c
  5554  002460  0E03               	movlw	3
  5555  002462  6E01               	movwf	MSdelay@val^0,c
  5556  002464  EC5B  F012         	call	_MSdelay	;wreg free
  5557  002468  0012               	return		;funcret
  5558  00246A                     __end_of_LCD_Char:
  5559                           	opt callstack 0
  5560                           
  5561 ;; *************** function _LCD_Init *****************
  5562 ;; Defined at:
  5563 ;;		line 3 in file "LCD_4bit.c"
  5564 ;; Parameters:    Size  Location     Type
  5565 ;;		None
  5566 ;; Auto vars:     Size  Location     Type
  5567 ;;		None
  5568 ;; Return value:  Size  Location     Type
  5569 ;;                  1    wreg      void 
  5570 ;; Registers used:
  5571 ;;		wreg, status,2, status,0, cstack
  5572 ;; Tracked objects:
  5573 ;;		On entry : 0/0
  5574 ;;		On exit  : 0/0
  5575 ;;		Unchanged: 0/0
  5576 ;; Data sizes:     COMRAM   BANK0   BANK1   BANK2   BANK3   BANK4   BANK5
  5577 ;;      Params:         0       0       0       0       0       0       0
  5578 ;;      Locals:         0       0       0       0       0       0       0
  5579 ;;      Temps:          0       0       0       0       0       0       0
  5580 ;;      Totals:         0       0       0       0       0       0       0
  5581 ;;Total ram usage:        0 bytes
  5582 ;; Hardware stack levels used:    1
  5583 ;; Hardware stack levels required when called:    2
  5584 ;; This function calls:
  5585 ;;		_LCD_Command
  5586 ;;		_MSdelay
  5587 ;; This function is called by:
  5588 ;;		_main
  5589 ;; This function uses a non-reentrant model
  5590 ;;
  5591                           
  5592                           	psect	text25
  5593  0025FA                     __ptext25:
  5594                           	opt callstack 0
  5595  0025FA                     _LCD_Init:
  5596                           	opt callstack 28
  5597  0025FA                     
  5598                           ;LCD_4bit.c: 5:     TRISD = 0;
  5599  0025FA  0E00               	movlw	0
  5600  0025FC  6E95               	movwf	149,c	;volatile
  5601  0025FE                     
  5602                           ;LCD_4bit.c: 6:     MSdelay(15);
  5603  0025FE  0E00               	movlw	0
  5604  002600  6E02               	movwf	(MSdelay@val+1)^0,c
  5605  002602  0E0F               	movlw	15
  5606  002604  6E01               	movwf	MSdelay@val^0,c
  5607  002606  EC5B  F012         	call	_MSdelay	;wreg free
  5608  00260A                     
  5609                           ;LCD_4bit.c: 7:     LCD_Command(0x02);
  5610  00260A  0E02               	movlw	2
  5611  00260C  EC35  F012         	call	_LCD_Command
  5612  002610                     
  5613                           ;LCD_4bit.c: 9:     LCD_Command(0x28);
  5614  002610  0E28               	movlw	40
  5615  002612  EC35  F012         	call	_LCD_Command
  5616  002616                     
  5617                           ;LCD_4bit.c: 11:  LCD_Command(0x01);
  5618  002616  0E01               	movlw	1
  5619  002618  EC35  F012         	call	_LCD_Command
  5620  00261C                     
  5621                           ;LCD_4bit.c: 12:     LCD_Command(0x0c);
  5622  00261C  0E0C               	movlw	12
  5623  00261E  EC35  F012         	call	_LCD_Command
  5624  002622                     
  5625                           ;LCD_4bit.c: 13:  LCD_Command(0x06);
  5626  002622  0E06               	movlw	6
  5627  002624  EC35  F012         	call	_LCD_Command
  5628  002628  0012               	return		;funcret
  5629  00262A                     __end_of_LCD_Init:
  5630                           	opt callstack 0
  5631                           
  5632 ;; *************** function _LCD_Command *****************
  5633 ;; Defined at:
  5634 ;;		line 16 in file "LCD_4bit.c"
  5635 ;; Parameters:    Size  Location     Type
  5636 ;;  cmd             1    wreg     unsigned char 
  5637 ;; Auto vars:     Size  Location     Type
  5638 ;;  cmd             1    7[COMRAM] unsigned char 
  5639 ;; Return value:  Size  Location     Type
  5640 ;;                  1    wreg      void 
  5641 ;; Registers used:
  5642 ;;		wreg, status,2, status,0, cstack
  5643 ;; Tracked objects:
  5644 ;;		On entry : 0/0
  5645 ;;		On exit  : 0/0
  5646 ;;		Unchanged: 0/0
  5647 ;; Data sizes:     COMRAM   BANK0   BANK1   BANK2   BANK3   BANK4   BANK5
  5648 ;;      Params:         0       0       0       0       0       0       0
  5649 ;;      Locals:         1       0       0       0       0       0       0
  5650 ;;      Temps:          1       0       0       0       0       0       0
  5651 ;;      Totals:         2       0       0       0       0       0       0
  5652 ;;Total ram usage:        2 bytes
  5653 ;; Hardware stack levels used:    1
  5654 ;; Hardware stack levels required when called:    1
  5655 ;; This function calls:
  5656 ;;		_MSdelay
  5657 ;; This function is called by:
  5658 ;;		_LCD_Init
  5659 ;;		_LCD_String_xy
  5660 ;;		_LCD_Clear
  5661 ;; This function uses a non-reentrant model
  5662 ;;
  5663                           
  5664                           	psect	text26
  5665  00246A                     __ptext26:
  5666                           	opt callstack 0
  5667  00246A                     _LCD_Command:
  5668                           	opt callstack 28
  5669                           
  5670                           ;incstack = 0
  5671                           ;LCD_Command@cmd stored from wreg
  5672  00246A  6E08               	movwf	LCD_Command@cmd^0,c
  5673  00246C                     
  5674                           ;LCD_4bit.c: 16: void LCD_Command(unsigned char cmd );LCD_4bit.c: 17: {;LCD_4bit.c: 18: 
      +                           LATD = (LATD & 0x0f) |(0xF0 & cmd);
  5675  00246C  C008  F007         	movff	LCD_Command@cmd,??_LCD_Command
  5676  002470  0EF0               	movlw	240
  5677  002472  1607               	andwf	??_LCD_Command^0,f,c
  5678  002474  508C               	movf	140,w,c	;volatile
  5679  002476  0B0F               	andlw	15
  5680  002478  1007               	iorwf	??_LCD_Command^0,w,c
  5681  00247A  6E8C               	movwf	140,c	;volatile
  5682  00247C                     
  5683                           ;LCD_4bit.c: 19:  LATD2 = 0;
  5684  00247C  948C               	bcf	3980,2,c	;volatile
  5685  00247E                     
  5686                           ;LCD_4bit.c: 20:  LATD3 = 1;
  5687  00247E  868C               	bsf	3980,3,c	;volatile
  5688  002480                     
  5689                           ;LCD_4bit.c: 21:  __nop();
  5690  002480  F000               	nop	
  5691  002482                     
  5692                           ;LCD_4bit.c: 22:  LATD3 = 0;
  5693  002482  968C               	bcf	3980,3,c	;volatile
  5694  002484                     
  5695                           ;LCD_4bit.c: 23:  MSdelay(1);
  5696  002484  0E00               	movlw	0
  5697  002486  6E02               	movwf	(MSdelay@val+1)^0,c
  5698  002488  0E01               	movlw	1
  5699  00248A  6E01               	movwf	MSdelay@val^0,c
  5700  00248C  EC5B  F012         	call	_MSdelay	;wreg free
  5701  002490                     
  5702                           ;LCD_4bit.c: 24:     LATD = (LATD & 0x0f) | (cmd<<4);
  5703  002490  C008  F007         	movff	LCD_Command@cmd,??_LCD_Command
  5704  002494  3A07               	swapf	??_LCD_Command^0,f,c
  5705  002496  0EF0               	movlw	240
  5706  002498  1607               	andwf	??_LCD_Command^0,f,c
  5707  00249A  508C               	movf	140,w,c	;volatile
  5708  00249C  0B0F               	andlw	15
  5709  00249E  1007               	iorwf	??_LCD_Command^0,w,c
  5710  0024A0  6E8C               	movwf	140,c	;volatile
  5711  0024A2                     
  5712                           ;LCD_4bit.c: 25:  LATD3 = 1;
  5713  0024A2  868C               	bsf	3980,3,c	;volatile
  5714  0024A4                     
  5715                           ;LCD_4bit.c: 26:  __nop();
  5716  0024A4  F000               	nop	
  5717  0024A6                     
  5718                           ;LCD_4bit.c: 27:  LATD3 = 0;
  5719  0024A6  968C               	bcf	3980,3,c	;volatile
  5720                           
  5721                           ;LCD_4bit.c: 28:  MSdelay(3);
  5722  0024A8  0E00               	movlw	0
  5723  0024AA  6E02               	movwf	(MSdelay@val+1)^0,c
  5724  0024AC  0E03               	movlw	3
  5725  0024AE  6E01               	movwf	MSdelay@val^0,c
  5726  0024B0  EC5B  F012         	call	_MSdelay	;wreg free
  5727  0024B4  0012               	return		;funcret
  5728  0024B6                     __end_of_LCD_Command:
  5729                           	opt callstack 0
  5730                           
  5731 ;; *************** function _MSdelay *****************
  5732 ;; Defined at:
  5733 ;;		line 79 in file "LCD_4bit.c"
  5734 ;; Parameters:    Size  Location     Type
  5735 ;;  val             2    0[COMRAM] unsigned int 
  5736 ;; Auto vars:     Size  Location     Type
  5737 ;;  j               2    4[COMRAM] unsigned int 
  5738 ;;  i               2    2[COMRAM] unsigned int 
  5739 ;; Return value:  Size  Location     Type
  5740 ;;                  1    wreg      void 
  5741 ;; Registers used:
  5742 ;;		wreg, status,2, status,0
  5743 ;; Tracked objects:
  5744 ;;		On entry : 0/0
  5745 ;;		On exit  : 0/0
  5746 ;;		Unchanged: 0/0
  5747 ;; Data sizes:     COMRAM   BANK0   BANK1   BANK2   BANK3   BANK4   BANK5
  5748 ;;      Params:         2       0       0       0       0       0       0
  5749 ;;      Locals:         4       0       0       0       0       0       0
  5750 ;;      Temps:          0       0       0       0       0       0       0
  5751 ;;      Totals:         6       0       0       0       0       0       0
  5752 ;;Total ram usage:        6 bytes
  5753 ;; Hardware stack levels used:    1
  5754 ;; This function calls:
  5755 ;;		Nothing
  5756 ;; This function is called by:
  5757 ;;		_LCD_Init
  5758 ;;		_LCD_Command
  5759 ;;		_LCD_Char
  5760 ;; This function uses a non-reentrant model
  5761 ;;
  5762                           
  5763                           	psect	text27
  5764  0024B6                     __ptext27:
  5765                           	opt callstack 0
  5766  0024B6                     _MSdelay:
  5767                           	opt callstack 27
  5768  0024B6                     
  5769                           ;LCD_4bit.c: 79: void MSdelay(unsigned int val);LCD_4bit.c: 80: {;LCD_4bit.c: 81:  unsig
      +                          ned int i,j;;LCD_4bit.c: 82:  for(i=0;i<val;i++)
  5770  0024B6  0E00               	movlw	0
  5771  0024B8  6E04               	movwf	(MSdelay@i+1)^0,c
  5772  0024BA  0E00               	movlw	0
  5773  0024BC  6E03               	movwf	MSdelay@i^0,c
  5774  0024BE  EF74  F012         	goto	l2184
  5775  0024C2                     l2172:
  5776                           
  5777                           ;LCD_4bit.c: 83:      for(j=0;j<165;j++);
  5778  0024C2  0E00               	movlw	0
  5779  0024C4  6E06               	movwf	(MSdelay@j+1)^0,c
  5780  0024C6  0E00               	movlw	0
  5781  0024C8  6E05               	movwf	MSdelay@j^0,c
  5782  0024CA                     l2178:
  5783  0024CA  4A05               	infsnz	MSdelay@j^0,f,c
  5784  0024CC  2A06               	incf	(MSdelay@j+1)^0,f,c
  5785  0024CE  5006               	movf	(MSdelay@j+1)^0,w,c
  5786  0024D0  E109               	bnz	u1890
  5787  0024D2  0EA5               	movlw	165
  5788  0024D4  5C05               	subwf	MSdelay@j^0,w,c
  5789  0024D6  A0D8               	btfss	status,0,c
  5790  0024D8  EF70  F012         	goto	u1891
  5791  0024DC  EF72  F012         	goto	u1890
  5792  0024E0                     u1891:
  5793  0024E0  EF65  F012         	goto	l2178
  5794  0024E4                     u1890:
  5795  0024E4  4A03               	infsnz	MSdelay@i^0,f,c
  5796  0024E6  2A04               	incf	(MSdelay@i+1)^0,f,c
  5797  0024E8                     l2184:
  5798  0024E8  5001               	movf	MSdelay@val^0,w,c
  5799  0024EA  5C03               	subwf	MSdelay@i^0,w,c
  5800  0024EC  5002               	movf	(MSdelay@val+1)^0,w,c
  5801  0024EE  5804               	subwfb	(MSdelay@i+1)^0,w,c
  5802  0024F0  A0D8               	btfss	status,0,c
  5803  0024F2  EF7D  F012         	goto	u1901
  5804  0024F6  EF7F  F012         	goto	u1900
  5805  0024FA                     u1901:
  5806  0024FA  EF61  F012         	goto	l2172
  5807  0024FE                     u1900:
  5808  0024FE  0012               	return		;funcret
  5809  002500                     __end_of_MSdelay:
  5810                           	opt callstack 0
  5811                           
  5812                           	psect	rparam
  5813  0000                     tosu	equ	0xFFF
  5814                           tosh	equ	0xFFE
  5815                           tosl	equ	0xFFD
  5816                           stkptr	equ	0xFFC
  5817                           pclatu	equ	0xFFB
  5818                           pclath	equ	0xFFA
  5819                           pcl	equ	0xFF9
  5820                           tblptru	equ	0xFF8
  5821                           tblptrh	equ	0xFF7
  5822                           tblptrl	equ	0xFF6
  5823                           tablat	equ	0xFF5
  5824                           prodh	equ	0xFF4
  5825                           prodl	equ	0xFF3
  5826                           indf0	equ	0xFEF
  5827                           postinc0	equ	0xFEE
  5828                           postdec0	equ	0xFED
  5829                           preinc0	equ	0xFEC
  5830                           plusw0	equ	0xFEB
  5831                           fsr0h	equ	0xFEA
  5832                           fsr0l	equ	0xFE9
  5833                           wreg	equ	0xFE8
  5834                           indf1	equ	0xFE7
  5835                           postinc1	equ	0xFE6
  5836                           postdec1	equ	0xFE5
  5837                           preinc1	equ	0xFE4
  5838                           plusw1	equ	0xFE3
  5839                           fsr1h	equ	0xFE2
  5840                           fsr1l	equ	0xFE1
  5841                           bsr	equ	0xFE0
  5842                           indf2	equ	0xFDF
  5843                           postinc2	equ	0xFDE
  5844                           postdec2	equ	0xFDD
  5845                           preinc2	equ	0xFDC
  5846                           plusw2	equ	0xFDB
  5847                           fsr2h	equ	0xFDA
  5848                           fsr2l	equ	0xFD9
  5849                           status	equ	0xFD8


Data Sizes:
    Strings     23
    Constant    0
    Data        0
    BSS         68
    Persistent  0
    Stack       0

Auto Spaces:
    Space          Size  Autos    Used
    COMRAM           95     93      95
    BANK0           160     90     156
    BANK1           256      0       0
    BANK2           256      0       0
    BANK3           256      0       0
    BANK4           256      0       0
    BANK5           256      0       0

Pointer List with Targets:

    strlen@s	PTR const unsigned char  size(2) Largest target is 32
		 -> dbuf(BANK0[32]), 

    strlen@a	PTR const unsigned char  size(2) Largest target is 32
		 -> dbuf(BANK0[32]), 

    sprintf@fmt	PTR const unsigned char  size(2) Largest target is 3
		 -> STR_5(CODE[3]), STR_2(CODE[3]), 

    sprintf@s	PTR unsigned char  size(2) Largest target is 40
		 -> main@Total_distance2(BANK0[40]), main@Total_distance(BANK0[40]), 

    sprintf@ap	PTR void [1] size(2) Largest target is 2
		 -> ?_sprintf(COMRAM[2]), 

    f.buffer	PTR unsigned char  size(2) Largest target is 40
		 -> main@Total_distance2(BANK0[40]), main@Total_distance(BANK0[40]), 

    fputs@s	PTR const unsigned char  size(2) Largest target is 32
		 -> dbuf(BANK0[32]), 

    fputs@fp	PTR struct _IO_FILE size(2) Largest target is 7
		 -> sprintf@f(BANK0[6]), 

    S796_IO_FILE$buffer	PTR unsigned char  size(2) Largest target is 40
		 -> main@Total_distance2(BANK0[40]), main@Total_distance(BANK0[40]), 

    fputc@fp.buffer	PTR unsigned char  size(2) Largest target is 40
		 -> main@Total_distance2(BANK0[40]), main@Total_distance(BANK0[40]), 

    fputc@fp	PTR struct _IO_FILE size(2) Largest target is 7
		 -> sprintf@f(BANK0[6]), 

    vfprintf@ap	PTR PTR void  size(2) Largest target is 2
		 -> sprintf@ap(BANK0[2]), 

    vfprintf@fp	PTR struct _IO_FILE size(2) Largest target is 7
		 -> sprintf@f(BANK0[6]), 

    vfprintf@fmt	PTR const unsigned char  size(2) Largest target is 3
		 -> STR_5(CODE[3]), STR_2(CODE[3]), 

    vfprintf@cfmt	PTR unsigned char  size(2) Largest target is 3
		 -> STR_5(CODE[3]), STR_2(CODE[3]), 

    vfpfcnvrt@fp	PTR struct _IO_FILE size(2) Largest target is 7
		 -> sprintf@f(BANK0[6]), 

    vfpfcnvrt@ap	PTR PTR void  size(2) Largest target is 2
		 -> sprintf@ap(BANK0[2]), 

    vfpfcnvrt@fmt	PTR PTR unsigned char  size(2) Largest target is 2
		 -> vfprintf@cfmt(COMRAM[2]), 

    dtoa@fp	PTR struct _IO_FILE size(2) Largest target is 7
		 -> sprintf@f(BANK0[6]), 

    pad@fp	PTR struct _IO_FILE size(2) Largest target is 7
		 -> sprintf@f(BANK0[6]), 

    pad@buf	PTR unsigned char  size(2) Largest target is 32
		 -> dbuf(BANK0[32]), 

    LCD_String_xy@msg	PTR const unsigned char  size(2) Largest target is 40
		 -> STR_7(CODE[2]), main@Total_distance2(BANK0[40]), STR_4(CODE[2]), main@Total_distance(BANK0[40]), 
		 -> STR_1(CODE[11]), 

    LCD_String@msg	PTR const unsigned char  size(2) Largest target is 40
		 -> STR_7(CODE[2]), STR_6(CODE[7]), main@Total_distance2(BANK0[40]), STR_4(CODE[2]), 
		 -> STR_3(CODE[7]), main@Total_distance(BANK0[40]), STR_1(CODE[11]), 


Critical Paths under _main in COMRAM

    _main->_sprintf
    _sprintf->_vfprintf
    _vfprintf->_vfpfcnvrt
    _vfpfcnvrt->_dtoa
    _dtoa->_pad
    _pad->_fputs
    _fputs->_fputc
    _abs->___aomod
    _find_distance2->___fltol
    _find_distance->___fltol
    ___fltol->___flmul
    ___flmul->___fldiv
    ___fldiv->___xxtofl
    _LCD_String_xy->_LCD_String
    _LCD_String->_LCD_Char
    _LCD_Char->_MSdelay
    _LCD_Init->_LCD_Command
    _LCD_Command->_MSdelay

Critical Paths under _main in BANK0

    _main->_sprintf

Critical Paths under _main in BANK1

    None.

Critical Paths under _main in BANK2

    None.

Critical Paths under _main in BANK3

    None.

Critical Paths under _main in BANK4

    None.

Critical Paths under _main in BANK5

    None.

Call Graph Tables:

 ---------------------------------------------------------------------------------
 (Depth) Function   	        Calls       Base Space   Used Autos Params    Refs
 ---------------------------------------------------------------------------------
 (0) _main                                                80    80      0   24977
                                             10 BANK0     80    80      0
                           _LCD_Init
                         _LCD_String
                      _LCD_String_xy
                      _find_distance
                     _find_distance2
                            _sprintf
 ---------------------------------------------------------------------------------
 (1) _sprintf                                             16    10      6    6608
                                             87 COMRAM     6     0      6
                                              0 BANK0     10    10      0
                           _vfprintf
 ---------------------------------------------------------------------------------
 (2) _vfprintf                                             8     2      6    6105
                                             79 COMRAM     8     2      6
                          _vfpfcnvrt
 ---------------------------------------------------------------------------------
 (3) _vfpfcnvrt                                           42    36      6    5751
                                             63 COMRAM    16    10      6
                               _dtoa
                              _fputc
 ---------------------------------------------------------------------------------
 (4) _dtoa                                                36    26     10    4358
                                             27 COMRAM    36    26     10
                            ___aodiv
                            ___aomod
                                _abs
                                _pad
 ---------------------------------------------------------------------------------
 (5) _pad                                                 11     5      6    2709
                                             16 COMRAM    11     5      6
                              _fputc
                              _fputs
                             _strlen
 ---------------------------------------------------------------------------------
 (6) _strlen                                               4     2      2     166
                                              0 COMRAM     4     2      2
 ---------------------------------------------------------------------------------
 (6) _fputs                                                7     3      4    1235
                                              9 COMRAM     7     3      4
                              _fputc
 ---------------------------------------------------------------------------------
 (4) _fputc                                                9     5      4     834
                                              0 COMRAM     9     5      4
                              _putch
 ---------------------------------------------------------------------------------
 (5) _putch                                                1     1      0       0
 ---------------------------------------------------------------------------------
 (5) _abs                                                  4     2      2     142
                                             18 COMRAM     4     2      2
                            ___aomod (ARG)
 ---------------------------------------------------------------------------------
 (5) ___aomod                                             18     2     16     448
                                              0 COMRAM    18     2     16
 ---------------------------------------------------------------------------------
 (5) ___aodiv                                             26    10     16     452
                                              0 COMRAM    26    10     16
 ---------------------------------------------------------------------------------
 (1) _find_distance2                                       0     0      0    7146
                _Trigger_Pulse2_10us
                            ___fladd
                            ___fldiv
                            ___flmul
                            ___fltol
                           ___xxtofl
 ---------------------------------------------------------------------------------
 (2) _Trigger_Pulse2_10us                                  0     0      0       0
 ---------------------------------------------------------------------------------
 (1) _find_distance                                        0     0      0    7146
                 _Trigger_Pulse_10us
                            ___fladd
                            ___fldiv
                            ___flmul
                            ___fltol
                           ___xxtofl
 ---------------------------------------------------------------------------------
 (2) ___xxtofl                                            14    10      4     474
                                              0 COMRAM    14    10      4
 ---------------------------------------------------------------------------------
 (2) ___fltol                                             10     6      4     381
                                             64 COMRAM    10     6      4
                            ___fldiv (ARG)
                            ___flmul (ARG)
 ---------------------------------------------------------------------------------
 (2) ___flmul                                             25    17      8    1896
                                             39 COMRAM    25    17      8
                            ___fldiv (ARG)
 ---------------------------------------------------------------------------------
 (2) ___fldiv                                             25    17      8    1855
                                             14 COMRAM    25    17      8
                           ___xxtofl (ARG)
 ---------------------------------------------------------------------------------
 (2) ___fladd                                             16     8      8    2540
                                              0 COMRAM    16     8      8
 ---------------------------------------------------------------------------------
 (2) _Trigger_Pulse_10us                                   0     0      0       0
 ---------------------------------------------------------------------------------
 (1) _LCD_String_xy                                        5     2      3    2200
                                             10 COMRAM     5     2      3
                        _LCD_Command
                         _LCD_String
 ---------------------------------------------------------------------------------
 (2) _LCD_String                                           2     0      2     789
                                              8 COMRAM     2     0      2
                           _LCD_Char
 ---------------------------------------------------------------------------------
 (3) _LCD_Char                                             2     2      0     516
                                              6 COMRAM     2     2      0
                            _MSdelay
 ---------------------------------------------------------------------------------
 (1) _LCD_Init                                             0     0      0     988
                        _LCD_Command
                            _MSdelay
 ---------------------------------------------------------------------------------
 (2) _LCD_Command                                          2     2      0     516
                                              6 COMRAM     2     2      0
                            _MSdelay
 ---------------------------------------------------------------------------------
 (4) _MSdelay                                              6     4      2     472
                                              0 COMRAM     6     4      2
 ---------------------------------------------------------------------------------
 Estimated maximum stack depth 6
 ---------------------------------------------------------------------------------

 Call Graph Graphs:

 _main (ROOT)
   _LCD_Init
     _LCD_Command
       _MSdelay
     _MSdelay
   _LCD_String
     _LCD_Char
       _MSdelay
   _LCD_String_xy
     _LCD_Command
       _MSdelay
     _LCD_String
       _LCD_Char
         _MSdelay
   _find_distance
     _Trigger_Pulse_10us
     ___fladd
     ___fldiv
       ___xxtofl (ARG)
     ___flmul
       ___fldiv (ARG)
         ___xxtofl (ARG)
     ___fltol
       ___fldiv (ARG)
         ___xxtofl (ARG)
       ___flmul (ARG)
         ___fldiv (ARG)
           ___xxtofl (ARG)
     ___xxtofl
   _find_distance2
     _Trigger_Pulse2_10us
     ___fladd
     ___fldiv
       ___xxtofl (ARG)
     ___flmul
       ___fldiv (ARG)
         ___xxtofl (ARG)
     ___fltol
       ___fldiv (ARG)
         ___xxtofl (ARG)
       ___flmul (ARG)
         ___fldiv (ARG)
           ___xxtofl (ARG)
     ___xxtofl
   _sprintf
     _vfprintf
       _vfpfcnvrt
         _dtoa
           ___aodiv
           ___aomod
           _abs
             ___aomod (ARG)
           _pad
             _fputc
               _putch
             _fputs
               _fputc
                 _putch
             _strlen
         _fputc
           _putch

 Address spaces:
Name               Size   Autos  Total    Cost      Usage
BIGRAM             5FF      0       0      16        0.0%
EEDATA             100      0       0       0        0.0%
BITBANK5           100      0       0      14        0.0%
BANK5              100      0       0      15        0.0%
BITBANK4           100      0       0      12        0.0%
BANK4              100      0       0      13        0.0%
BITBANK3           100      0       0      10        0.0%
BANK3              100      0       0      11        0.0%
BITBANK2           100      0       0       8        0.0%
BANK2              100      0       0       9        0.0%
BITBANK1           100      0       0       6        0.0%
BANK1              100      0       0       7        0.0%
BITBANK0            A0      0       0       4        0.0%
BANK0               A0     5A      9C       5       97.5%
BITCOMRAM           5F      0       0       0        0.0%
COMRAM              5F     5D      5F       1      100.0%
BITSFR_3             0      0       0     200        0.0%
SFR_3                0      0       0     200        0.0%
BITSFR_2             0      0       0     200        0.0%
SFR_2                0      0       0     200        0.0%
BITSFR_1             0      0       0     200        0.0%
SFR_1                0      0       0     200        0.0%
BITSFR               0      0       0     200        0.0%
SFR                  0      0       0     200        0.0%
STACK                0      0       0       2        0.0%
NULL                 0      0       0       0        0.0%
ABS                  0      0      FB       3        0.0%
DATA                 0      0      FB      17        0.0%
CODE                 0      0       0       0        0.0%


Microchip Technology PIC18 Macro Assembler V2.10 build 88905656 
Symbol Table                                                                                   Wed Mar 17 17:15:59 2021

                ___fldiv@aexp 0027                  ___fldiv@bexp 0026                             _i 00D6  
                           _j 00D4                  ___fldiv@sign 001F                  ?_LCD_Command 0001  
                 __CFG_BORV$3 000000                   ?_LCD_String 0009                  __CFG_CP0$OFF 000000  
                __CFG_CP1$OFF 000000                  __CFG_CP2$OFF 000000                  __CFG_CP3$OFF 000000  
                         l110 24B4                           l113 2468                           l201 1E04  
                         l202 1F14                           l107 2628                           l124 25C2  
                         l205 2650                           l135 24FE                           l119 23CA  
                         l232 228E                           l235 22D0                           l243 133E  
                         l181 1F4C                           l237 230A                           l245 1346  
                         l270 1910                           l407 1DB0                           l263 157A  
                         l185 1F68                           l186 2078                           l178 1F34  
                         l194 1DD0                           l276 2364                           l189 265E  
                         l197 1DE8                           l277 236C                           l810 07BC  
                         l394 1C4C                           l901 0D94                           l911 0EC4  
                         l903 0E0C                           l808 0808                           l904 0DFA  
                         l825 0922                           l817 0AD8                           l809 07F6  
                         l577 217E                           l834 09F2                           l835 09E0  
                         l862 129C                           l942 1A00                           l935 1968  
                         l864 10FC                           l873 1142                           l938 1AC4  
                         l970 2248                           l875 11BA                           l867 10C0  
                         l955 257A                           l876 11A8                           l949 1A5C  
                         l894 0B9E                           l958 2582                           l985 241C  
                         l898 0F02                           l978 2542                           l994 25F8  
                         l988 2660                  __CFG_CPB$OFF 000000                  __CFG_CPD$OFF 000000  
                         _abs 2544                           _pad 224A                           wreg 000FE8  
                ___flmul@aexp 0039                  ___flmul@bexp 003A                  ___flmul@sign 0034  
                ___flmul@temp 003F                  ___flmul@prod 003B                  __CFG_LVP$OFF 000000  
                 LCD_Char@dat 0008                  ___fltol@exp1 004A                  __CFG_WDT$OFF 000000  
                        ?_abs 0013                          l2100 1B0A                          l2110 1B60  
                        l2102 1B2A                          l3000 1EB0                          l2120 1BE2  
                        l2112 1B74                          l2104 1B2E                          l2040 21CC  
                        l2032 2180                          l2200 134E                          l2130 1C2C  
                        l2122 1BE4                          l2114 1B82                          l2106 1B3A  
                        l2042 2202                          l2034 2192                          l2050 251E  
                        l2210 1384                          l2202 1360                          l3010 158C  
                        l3002 157C                          l2124 1BF6                          l2116 1B94  
                        l2108 1B58                          l2140 1C80                          l2036 21A4  
                        l2052 2522                          l2060 25EC                          l2212 138A  
                        l2220 147C                          l2204 136E                          l3020 159E  
                        l3012 158E                          l3004 157E                          l2310 236E  
                        l2118 1BC2                          l2126 1BFC                          l2150 1CD8  
                        l2142 1C84                          l2134 1C4E                          l2038 21AE  
                        l2046 2500                          l2054 25C4                          l2070 227A  
                        l2222 1496                          l2230 14F6                          l2214 140C  
                        l2206 1374                          l2302 18DA                          l3030 15FE  
                        l3022 15B0                          l3014 1590                          l3006 1586  
                        l2320 247C                          l2312 2372                          l2400 06FA  
                        l2128 1C0C                          l2160 1D5A                          l2152 1CEC  
                        l2144 1C92                          l2136 1C52                          l2048 250C  
                        l2056 25D0                          l2080 22DE                          l2072 2286  
                        l2064 224A                          l2240 153A                          l2232 1508  
                        l2224 14B4                          l2216 1412                          l2208 137C  
                        l2304 18FE                          l3040 165C                          l3032 160E  
                        l3024 15B4                          l3016 1594                          l3008 1588  
                        l2170 24B6                          l2330 2490                          l2322 247E  
                        l2250 2430                          l2314 2396                          l2410 0726  
                        l2402 070C                          l2090 1AC6                          l2154 1CFA  
                        l2162 1D60                          l2146 1CB2                          l2138 1C60  
                        l2058 25D4                          l2082 22F2                          l2074 229A  
                        l2066 2258                          l2242 1542                          l2234 1516  
                        l2226 14CE                          l2218 1418                          l3050 16CA  
                        l3042 166E                          l3034 1620                          l3026 15D0  
                        l3018 1596                          l2180 24CE                          l2172 24C2  
                        l2332 24A2                          l2324 2480                          l2260 2444  
                        l2252 2432                          l2316 239A                          l2340 2654  
                        l2500 095C                          l2420 073A                          l2412 072A  
                        l2404 071A                          l2092 1ACA                          l2164 1D70  
                        l2156 1D28                          l2148 1CD0                          l2076 22AE  
                        l2068 226C                          l2236 151C                          l2244 1552  
                        l2228 14E8                          l3060 172E                          l3052 16D2  
                        l3044 167E                          l3036 1624                          l3028 15EC  
                        l2182 24E4                          l2334 24A4                          l2326 2482  
                        l2318 246C                          l2262 2456                          l2254 2434  
                        l2342 265C                          l2510 098C                          l2502 0966  
                        l2430 074E                          l2422 073E                          l2414 072E  
                        l2406 071E                          l2094 1AD8                          l2166 1D90  
                        l2158 1D48                          l2086 2544                          l2078 22B2  
                        l2238 152E                          l2190 12E6                          l2270 1782  
                        l2350 230C                          l3062 174A                          l3054 16EE  
                        l3046 1690                          l3038 1640                          l2184 24E8  
                        l2336 24A6                          l2328 2484                          l2264 2458  
                        l2256 2436                          l2248 2420                          l2520 09B4  
                        l2512 0990                          l2504 0974                          l2440 0788  
                        l2432 0752                          l2424 0742                          l2416 0732  
                        l2408 0722                          l2360 0626                          l2600 0FE6  
                        l2344 2644                          l2096 1AF8                          l2088 255E  
                        l2192 1306                          l2280 17EE                          l2272 1790  
                        l2352 2314                          l3064 1752                          l3056 170A  
                        l3048 16AE                          l2178 24CA                          l2266 245A  
                        l2258 2438                          l2338 2652                          l2530 0A0E  
                        l2522 09C2                          l2514 09A0                          l2506 0976  
                        l2450 07DA                          l2442 07A4                          l2434 0756  
                        l2426 0746                          l2418 0736                          l2370 0666  
                        l2362 0634                          l2602 0FF6                          l2610 1016  
                        l2346 2646                          l2098 1AFC                          l2194 1316  
                        l2186 129E                          l2290 18A0                          l2282 1836  
                        l2274 17A2                          l2354 2322                          l3058 1712  
                        l2540 0A78                          l2532 0A1C                          l2524 09D8  
                        l2508 0984                          l2516 09A2                          l2460 0826  
                        l2452 07E8                          l2444 07B4                          l2428 074A  
                        l2436 075A                          l2380 0698                          l2372 0668  
                        l2364 0636                          l2620 1054                          l2612 1026  
                        l2604 0FFE                          l2700 0AE6                          l2348 264E  
                        l2196 1318                          l2188 12BE                          l2292 18B4  
                        l2276 17A6                          l2268 175E                          l2356 2348  
                        l2550 0AB2                          l2542 0A98                          l2534 0A56  
                        l2470 0866                          l2518 09B0                          l2454 07EA  
                        l2446 07CA                          l2438 075E                          l2390 06C0  
                        l2382 069A                          l2366 0646                          l2374 0670  
                        l2358 061A                          l2630 109C                          l2622 1064  
                        l2614 1026                          l2606 1002                          l2710 0B26  
                        l2702 0AF4                          l2198 1332                          l2286 186E  
                        l2278 17CA                          l2552 0AB8                          l2544 0A9C  
                        l2528 0A02                          l2536 0A58                          l2480 0890  
                        l2472 0872                          l2464 083A                          l2456 07F4  
                        l2448 07D6                          l2392 06D0                          l2384 06A0  
                        l2376 0680                          l2368 0656                          l2640 10EA  
                        l2632 10B0                          l2624 1074                          l2560 0F04  
                        l2800 0E28                          l2720 0B56                          l2712 0B2C  
                        l2704 0AF6                          l2288 1892                          l2296 18C0  
                        l2554 0AC6                          l2546 0AAA                          l2538 0A68  
                        l2490 0902                          l2474 0876                          l2466 084A  
                        l2458 0816                          l2482 0896                          l2394 06E0  
                        l2386 06AE                          l2378 0686                          l2650 1132  
                        l2642 10FA                          l2634 10BE                          l2626 1084  
                        l2618 103A                          l2570 0F40                          l2562 0F10  
                        l2810 0E92                          l2802 0E36                          l2730 0B8E  
                        l2722 0B58                          l2714 0B3C                          l2706 0B06  
                        l2298 18CE                          l2556 0AC8                          l2548 0AB0  
                        l2484 08BC                          l2492 0912                          l2476 0884  
                        l2468 0858                          l2396 06E2                          l2388 06B0  
                        l2660 1172                          l2652 1140                          l2644 110C  
                        l2636 10CA                          l2628 108C                          l2580 0F70  
                        l2572 0F50                          l2564 0F1E                          l2820 0EE8  
                        l2812 0EAC                          l2804 0E60                          l2740 0BDE  
                        l2732 0BAE                          l2724 0B68                          l2716 0B42  
                        l2708 0B16                          l2900 1A4C                          l2494 0938  
                        l2486 08F0                          l2478 0886                          l2398 06EA  
                        l2670 11E4                          l2662 11A0                          l2646 1122  
                        l2654 1152                          l2638 10E8                          l2590 0FA6  
                        l2582 0F76                          l2574 0F52                          l2566 0F20  
                        l2814 0EC8                          l2822 0EEE                          l2806 0E64  
                        l2750 0C2E                          l2742 0BE8                          l2734 0BBE  
                        l2726 0B78                          l2718 0B48                          l2830 2090  
                        l2910 1AA4                          l2902 1A6A                          l2920 25FE  
                        l2496 0948                          l2488 08F2                          l2680 125C  
                        l2672 120E                          l2656 1160                          l2648 1128  
                        l2592 0FB6                          l2584 0F84                          l2568 0F30  
                        l2576 0F5A                          l2824 0EF2                          l2816 0ED8  
                        l2808 0E7E                          l2760 0C70                          l2752 0C3A  
                        l2744 0BFE                          l2728 0B88                          l2840 20E0  
                        l2912 1AB2                          l2904 1A6C                          l2930 2622  
                        l2922 260A                          l2690 1292                          l2682 1278  
                        l2666 11CA                          l2674 1212                          l2658 1164  
                        l2594 0FB8                          l2586 0F86                          l2578 0F6A  
                        l2818 0EE6                          l2770 0CD2                          l2762 0C80  
                        l2754 0C48                          l2746 0C0A                          l2738 0BD2  
                        l2850 210A                          l2842 20E4                          l2834 20A4  
                        l2914 1AB4                          l2906 1A70                          l2924 2610  
                        l2940 25A8                          l2932 2586                          l2684 127C  
                        l2676 122C                          l2668 11D6                          l2588 0F96  
                        l2596 0FC0                          l2780 0D7A                          l2772 0CEE  
                        l2764 0C9A                          l2756 0C54                          l2748 0C22  
                        l2860 2132                          l2852 2114                          l2844 20F2  
                        l2836 20CE                          l2828 207A                          l2908 1A94  
                        l2926 2616                          l2918 25FA                          l2942 25B0  
                        l2934 2586                          l2686 128A                          l2678 1242  
                        l2598 0FD0                          l2790 0DB6                          l2782 0D84  
                        l2774 0D18                          l2766 0CAA                          l2758 0C64  
                        l2862 213E                          l2854 211E                          l2838 20D0  
                        ?_pad 0011                          l2928 261C                          l2944 25B6  
                        l2936 2596                          l2688 1290                          l2792 0DC4  
                        l2784 0D92                          l2776 0D4E                          l2768 0CC6  
                        l2864 214E                          l2880 198E                          l2872 1914  
                        l2960 1F72                          l2952 1F30                          l2938 259E  
                        l2794 0DF2                          l2786 0DA4                          l2778 0D5C  
                        l2698 0ADA                          l2866 215E                          l2890 19E8  
                        l2874 1924                          l2962 1FF2                          l2954 1F42  
                        l2946 1F16                          l2970 23DE                          l2788 0DB2  
                        l2868 216E                          l2892 19EA                          l2884 19A2  
                        l2876 1932                          l2964 1FF8                          l2956 1F4A  
                        l2980 1DB2                          l2972 23E6                          l2798 0E1C  
                        l2894 19F6                          l2886 19AA                          l2878 1978  
                        l2966 2014                          l2958 1F5A                          l2990 1DE6  
                        l2974 23EE                          l2896 1A32                          l2888 19B6  
                        l2992 1DF6                          l2976 240A                          l2968 23CC  
                        l2898 1A3E                          l2994 1E0E                          l2986 1DCC  
                        l2996 1E8E                          l2988 1DDE                          l2998 1E94  
                        STR_1 0601                          STR_2 0613                          STR_3 060C  
                        STR_4 0616                          STR_5 0613                          STR_6 060C  
                        STR_7 0616                          u2000 14CE                          u2001 14CA  
                        u2010 14E8                          u2011 14E4                          u2100 2392  
                        u2020 14F6                          u2021 14F2                          u2110 23BA  
                        u2030 1508                          u2031 1504                          u2120 23CA  
                        u2200 06D0                          u3000 214E                          u2040 1516  
                        u2121 23C6                          u2201 06CC                          u3001 214A  
                        u2041 1512                          u2210 070C                          u3010 215E  
                        u2050 152E                          u2130 2364                          u2107 2388  
                        u2211 0708                          u3011 215A                          u2051 152A  
                        u2131 2360                          u2300 0826                          u2220 071A  
                        u2140 0634                          u3100 1AA4                          u3020 1924  
                        u2060 1782                          u2117 23B0                          u2301 0822  
                        u2221 0716                          u2141 0630                          u3101 1AA0  
                        u3021 1920                          u2061 177E                          u2310 0858  
                        u2230 0788                          u2150 0646                          u3110 1AB2  
                        u3030 1932                          u2070 17CA                          u2311 0854  
                        u2231 0784                          u2151 0642                          u3111 1AAE  
                        u3031 192E                          u2071 17C6                          u3120 2596  
                        u2400 09A0                          u2320 0866                          u2240 07A0  
                        u2160 0656                          u3040 198E                          u3200 1EB0  
                        u2080 17EE                          _LATD 000F8C                          u3121 2592  
                        u2401 099C                          u2321 0862                          u2241 079A  
                        u2161 0652                          u3041 198A                          u3201 1EAC  
                        u2081 17EA                          u2410 09B0                          u2330 0884  
                        u2250 07A2                          u2170 0698                          u3050 19E4  
                        u3130 1F42                          u2090 1892                          u3210 15D0  
                        u2411 09AC                          u2331 0880                          u2171 0694  
                        u3051 19E0                          u3131 1F3E                          u2091 188E  
                        u3211 15CC                          u2500 0A98                          u2420 09C2  
                        u2340 08BC                          u2260 07CA                          u2180 06AE  
                        u3060 1A2E                          u3140 1F5A                          u1700 25EC  
                        u3220 1640                          u2501 0A94                          u2421 09BE  
                        u2341 08B8                          u2261 07C6                          u2181 06AA  
                        u3061 1A2A                          u3141 1F56                          u1701 25E8  
                        u3221 163C                          u2510 0AAA                          u2430 09D8  
                        u2350 0902                          u2270 07E8                          u2190 06C0  
                        u3070 1A4C                          u3150 1F68                          u1710 2258  
                        u3230 16AE                          u2511 0AA6                          u2431 09D4  
                        u2351 08FE                          u2271 07E4                          u2191 06BC  
                        u3071 1A48                          u3151 1F64                          u1711 2254  
                        u3231 16AA                          u2520 0AC6                          u2440 09EE  
                        u2360 0938                          u2280 0808                          u2600 1026  
                        u3080 1A5C                          u3160 2014                          u1800 1B82  
                        u1720 227A                          u3240 16CA                          u2521 0AC2  
                        u2441 09EA                          u2361 0934                          u2281 0804  
                        u2601 1022                          u3081 1A58                          u3161 2010  
                        u1801 1B7E                          u1721 2276                          u3241 16C6  
                        u2450 0A02                          u2370 0948                          u2290 0816  
                        u2610 109C                          u2530 0F1E                          u3090 1A6A  
                        u3170 1DDE                          u1810 1BC2                          u1650 2192  
                        u1730 22D0                          u3250 16EE                          u3307 2656  
                        u2451 09FE                          u2371 0944                          u2291 0812  
                        u2611 1098                          u2531 0F1A                          u3091 1A66  
                        u3171 1DDA                          u1811 1BBE                          u1651 218E  
                        u1731 22CC                          u3251 16EA                          u1900 24FE  
                        u2460 0A1C                          u2380 0974                          u2700 11B6  
                        u2620 10BE                          u2540 0F30                          u3180 1DF6  
                        u1820 1C0C                          u1660 21A4                          u1740 22DE  
                        u3260 170A                          u1901 24FA                          u2461 0A18  
                        u2381 0970                          u2701 11B2                          u2621 10BA  
                        u2541 0F2C                          u3181 1DF2                          u1821 1C08  
                        u1661 21A0                          u1741 22DA                          u3261 1706  
                        u2470 0A56                          u2390 0984                          u2710 11CA  
                        u2630 10E8                          u2550 0F40                          u3190 1E04  
                        u1830 1C60                          u1750 255E                          u1670 21CC  
                        u1910 12CE                          u3270 172E                          u2471 0A52  
                        u2391 0980                          u2711 11C6                          u2631 10E4  
                        u2551 0F3C                          u3191 1E00                          u1831 1C5C  
                        u1751 255A                          u1671 21C8                          u1911 12C8  
                        u3271 172A                          u2480 0A68                          u2720 11E4  
                        u2640 110C                          u2560 0F84                          u2800 0B68  
                        u1760 1AD8                          u1840 1C92                          u1680 2202  
                        u1920 12D0                          u3280 174A                          u2481 0A64  
                        u2721 11E0                          u2641 1108                          u2561 0F80  
                        u2801 0B64                          u1761 1AD4                          u1841 1C8E  
                        u1681 21FE                          u3281 1746                          u2490 0A78  
                        u2730 122C                          u2650 1122                          u2570 0F96  
                        u2810 0B78                          u1770 1B0A                          u1850 1CD0  
                        u1690 2542                          u1930 12E6                          u2491 0A74  
                        u2731 1228                          u2651 111E                          u2571 0F92  
                        u2811 0B74                          u1771 1B06                          u1851 1CCC  
                        u1691 253E                          u1931 12E2                          u2740 125C  
                        u2660 1140                          u2580 0FA6                          u2900 0E1C  
                        u2820 0BAE                          u1860 1CFA                          u1940 1316  
                        u2741 1258                          u2661 113C                          u2581 0FA2  
                        u2901 0E18                          u2821 0BAA                          u1781 1B34  
                        u1861 1CF6                          u1941 1312                          u2750 128A  
                        u2670 1160                          u2590 0FE6                          u2910 0E36  
                        u2830 0BBE                          u1790 1B58                          u1870 1D28  
                        u1950 1332                          u2751 1286                          u2671 115C  
                        u2591 0FE2                          u2911 0E32                          u2831 0BBA  
                        u1791 1B54                          u1871 1D24                          u1951 132E  
                        u2680 1172                          u2920 0E7E                          u2840 0D38  
                        u2760 0AF4                          u1880 1D70                          u1960 1360  
                        u2681 116E                          u2921 0E7A                          u2761 0AF0  
                        u3297 2648                          u1881 1D6C                          u1961 135C  
                        u1890 24E4                          u2690 11A0                          u2930 0EAC  
                        u2850 0D92                          u2770 0B06                          u1970 136E  
                        u1891 24E0                          u2691 119C                          u2931 0EA8  
                        u2851 0D8E                          u2771 0B02                          u1971 136A  
                        u2940 0EE6                          u2860 0DB2                          u2780 0B16  
                        u1980 1496                          u2941 0EE2                          u2861 0DAE  
                        u2845 0D2E                          u2781 0B12                          u1981 1492  
                        u2870 0DC4                          u2790 0B56                          u2950 2090  
                        u1990 14B4                          u2871 0DC0                          u2791 0B52  
                        u2951 208C                          u1991 14B0                          u2880 0DF2  
                        u2960 20C4                          u2881 0DEE                          u2890 0E08  
                        u2970 20F2                          u2891 0E04                          u2971 20EE  
                        u2980 2106                          u2981 2102                          u2965 20BA  
                        u2990 212E                          u2991 212A                          _TMR1 000FCE  
                        _Time 00DA                          abs@a 0013                          _dbuf 00DC  
                        _dist 00BE                          _main 157C                          _dtoa 129E  
                        _prec 00CE                          _nout 00CA                          pad@i 0018  
                        pad@p 0015                          fsr1h 000FE2                          fsr2h 000FDA  
                        indf1 000FE7                          indf2 000FDF                          fsr1l 000FE1  
                        pad@w 001A                          fsr2l 000FD9                          prodh 000FF4  
                        prodl 000FF3                          start 0000               __end_of_MSdelay 2500  
               __CFG_IESO$OFF 000000               ___fldiv@new_exp 0020                 _LCD_String_xy 2584  
 __end_of_Trigger_Pulse2_10us 2652                 __CFG_MCLRE$ON 000000               ??_find_distance 004B  
                ___param_bank 000000                         ??_abs 0015                         ??_pad 0017  
            __end_of_LCD_Char 246A              __end_of_LCD_Init 262A                 ___fltol@sign1 0049  
             __end_of___aodiv 1C4E               __end_of___fladd 0ADA                         ?_main 0001  
                       ?_dtoa 001C               __end_of___aomod 1DB2               __end_of___fldiv 129E  
             __end_of___flmul 0F04               __end_of___fltol 2180                         _T1CON 000FCD  
                       _LATD0 007C60                         _LATD1 007C61                         _LATD2 007C62  
                       _LATD3 007C63                  vfpfcnvrt@fmt 0042                         _PORTC 000F82  
                       _TRISB 000F93                         _TRISC 000F94                         _TRISD 000F95  
               __CFG_PWRT$OFF 000000                 __CFG_WRT0$OFF 000000                 __CFG_WRT1$OFF 000000  
               __CFG_WRT2$OFF 000000                 __CFG_WRT3$OFF 000000                __CFG_EBTR0$OFF 000000  
              __CFG_FCMEN$OFF 000000                __CFG_EBTR1$OFF 000000                         _Time2 00D8  
              __CFG_EBTR2$OFF 000000                __CFG_EBTR3$OFF 000000                 __CFG_WRTB$OFF 000000  
               __CFG_WRTC$OFF 000000                 __CFG_WRTD$OFF 000000                __CFG_EBTRB$OFF 000000  
                       _dist2 00BA                         _flags 005E                         _fputc 2180  
                       _fputs 2500                         pad@fp 0011                         _width 00CC  
                       _putch 2660                         dtoa@d 001E                         dtoa@i 003E  
                       dtoa@n 0036                         dtoa@p 0030                         dtoa@s 0034  
                       dtoa@w 0032                         tablat 000FF5                         status 000FD8  
         __size_of_LCD_String 005E               __end_of_sprintf 241E                ?_LCD_String_xy 000B  
            ??_find_distance2 004B               __initialization 262A                  __end_of_main 175E  
                __end_of_dtoa 157C                        ??_main 005E                        ??_dtoa 0026  
               __activetblptr 000002                        ?_fputc 0001                        ?_fputs 000A  
             __CFG_BBSIZ$1024 000000                        ?_putch 0001              LCD_String_xy@msg 000C  
            LCD_String_xy@pos 000B              LCD_String_xy@row 000E                     ??_MSdelay 0003  
                      _TMR1IF 007CF0                        _TMR1ON 007E68              __end_of___xxtofl 1AC6  
              __CFG_XINST$OFF 000000                  vfprintf@cfmt 0056                     ??___aodiv 0011  
                   ??___fladd 0009                     ??___aomod 0011                     ??___fldiv 0017  
              __CFG_STVREN$ON 000000                     ??___flmul 0030                     ??___fltol 0045  
                      clear_0 2630   __size_of_Trigger_Pulse_10us 000E                        pad@buf 0013  
        __size_of_LCD_Command 004C                        dtoa@fp 001C                        _strlen 25C4  
             __CFG_BOREN$BOHW 000000                        fputc@c 0001                        fputs@c 000E  
                      fputs@i 000F                        fputs@s 000A                  __mediumconst 0000  
                      tblptrh 000FF7                        tblptrl 000FF6                        tblptru 000FF8  
                      putch@c 0001              __end_of_vfprintf 236E                     ??_sprintf 005E  
                ___xxtofl@arg 000B                  ___xxtofl@exp 000A                  ___xxtofl@val 0001  
                   ?_LCD_Char 0001                    __accesstop 0060       __end_of__initialization 263A  
                   ?_LCD_Init 0001               __CFG_PBADEN$OFF 000000               ??_LCD_String_xy 000E  
               ___rparam_used 000001                    ___fltol@f1 0041                __pcstackCOMRAM 0001  
               __end_of_fputc 224A                 __end_of_fputs 2544                 __end_of_putch 2662  
                ??_LCD_String 000B               __CFG_OSC$IRCIO7 000000                       ??_fputc 0005  
                     ??_fputs 000E                       ??_putch 0001                    __pbssBANK0 00BA  
                  ??_LCD_Char 0007                    ??_LCD_Init 0009            __end_of_LCD_String 23CC  
                     ?_strlen 0001                     ?___xxtofl 0001            __size_of_vfpfcnvrt 01B4  
                     _MSdelay 24B6                 LCD_String@msg 0009                       __Hparam 0000  
                     __Lparam 0000                       ___aodiv 1AC6                       ___fladd 061A  
                     ___aomod 1C4E                       ___fldiv 0F04         __end_of_find_distance 207A  
                     ___flmul 0ADA                       ___fltol 207A            main@Total_distance 006A  
                   ?_vfprintf 0050                  __psmallconst 0600                       __pcinit 262A  
                     __ramtop 0600  __size_of_Trigger_Pulse2_10us 000E                       __ptext0 157C  
                     __ptext1 23CC                       __ptext2 230C                       __ptext3 175E  
                     __ptext4 129E                       __ptext5 224A                       __ptext6 25C4  
                     __ptext7 2500                       __ptext8 2180                       __ptext9 2660  
             __size_of_strlen 0036                  __size_of_abs 0040                  __size_of_pad 00C2  
                  ??___xxtofl 0005                       _sprintf 23CC          end_of_initialization 263A  
                     fputc@fp 0003                LCD_Command@cmd 0008                 __Lmediumconst 0000  
                     fputs@fp 000C             __end_of_vfpfcnvrt 1912                       postdec2 000FDD  
                     postinc0 000FEE                       postinc1 000FE6                       postinc2 000FDE  
                  ??_vfprintf 0056                       strlen@a 0003                       strlen@s 0001  
                   _PORTBbits 000F81                   ___fladd@grs 0010                 ___xxtofl@sign 0009  
                 ___fldiv@grs 0022                   ___fldiv@rem 001B                   ___flmul@grs 0035  
           __size_of_LCD_Char 004C             __size_of_LCD_Init 0030    __end_of_Trigger_Pulse_10us 2660  
               ??_LCD_Command 0007                   vfpfcnvrt@ap 0044                   vfpfcnvrt@fp 0040  
                 vfpfcnvrt@ll 0048                     _Distance2 00C2       __size_of_find_distance2 0164  
              __end_of_strlen 25FA           start_initialization 262A                   __end_of_abs 2584  
                 __end_of_pad 230C         __end_of_LCD_String_xy 25C4                   vfprintf@fmt 0052  
            __CFG_LPT1OSC$OFF 000000                      ??_strlen 0003                     ___fladd@a 0005  
                   ___fladd@b 0001                     ___fldiv@a 0013                     ___fldiv@b 000F  
         __end_of_LCD_Command 24B6                     ___flmul@a 002C                     ___flmul@b 0028  
                 __pbssCOMRAM 005E                 __pcstackBANK0 0060              ___aodiv@dividend 0001  
           __size_of___xxtofl 01B4                      ?_MSdelay 0001           _Trigger_Pulse2_10us 2644  
                    ?___aodiv 0001                      ?___fladd 0001                      ?___aomod 0001  
                    ?___fldiv 000F              ___aodiv@quotient 0013                      ?___flmul 0028  
                    ?___fltol 0041          ?_Trigger_Pulse2_10us 0001                     _distance2 00D0  
           __size_of_vfprintf 0062                   __smallconst 0600         LCD_String_xy@location 000F  
                    ?_sprintf 0058                __size_of_fputc 00CA                __size_of_fputs 0044  
              __size_of_putch 0002                      MSdelay@i 0003                      MSdelay@j 0005  
                    _LCD_Char 241E                      _LCD_Init 25FA              __CFG_WDTPS$32768 000000  
                 _LCD_Command 246A         ??_Trigger_Pulse2_10us 0001                     _vfpfcnvrt 175E  
              _find_distance2 1DB2                   _INTCON2bits 000FF1                      _Distance 00C6  
      __size_of_find_distance 0164              __size_of_MSdelay 004A                      __Hrparam 0000  
                  vfprintf@ap 0054                      __Lrparam 0000                    vfprintf@fp 0050  
            __size_of___aodiv 0188              __size_of___fladd 04C0              __size_of___aomod 0164  
            __size_of___fldiv 039A              __size_of___flmul 042A              __size_of___fltol 0106  
      __end_of_find_distance2 1F16                    ?_vfpfcnvrt 0040               ___aodiv@divisor 0009  
         main@Total_distance2 0092               ___aodiv@counter 0011                    sprintf@fmt 005A  
                    ___xxtofl 1912                      _dtoa$335 002E            _Trigger_Pulse_10us 2652  
                    __ptext10 2544                      __ptext11 1C4E                      __ptext20 061A  
                    __ptext12 1AC6                      __ptext21 2652                      __ptext13 1DB2  
                    __ptext22 2584                      __ptext14 2644                      __ptext23 236E  
                    __ptext15 1F16                      __ptext24 241E                      __ptext16 1912  
                    __ptext25 25FA                      __ptext17 207A                      __ptext26 246A  
                    __ptext18 0ADA                      __ptext27 24B6                      __ptext19 0F04  
                    _distance 00D2              __size_of_sprintf 0052           ?_Trigger_Pulse_10us 0001  
               __size_of_main 01E2                 __size_of_dtoa 02DE                    MSdelay@val 0001  
                    _vfprintf 230C                 _find_distance 1F16               ?_find_distance2 0001  
        ??_Trigger_Pulse_10us 0001                    _LCD_String 236E              ___aomod@dividend 0001  
                   sprintf@ap 0062                ?_find_distance 0001               ___aomod@divisor 0009  
                 ??_vfpfcnvrt 0046               ___aomod@counter 0011                      sprintf@f 0064  
                    sprintf@s 0058        __size_of_LCD_String_xy 0040                 ___fladd@signs 000D  
                ___aodiv@sign 0012                  ___fladd@aexp 000E                  ___fladd@bexp 000F  
                ___aomod@sign 0012  
